
rtarget:     file format elf64-x86-64


Disassembly of section .init:

0000000000400bc8 <_init>:
  400bc8:	48 83 ec 08          	sub    $0x8,%rsp
  400bcc:	48 8b 05 25 44 20 00 	mov    0x204425(%rip),%rax        # 604ff8 <__gmon_start__>
  400bd3:	48 85 c0             	test   %rax,%rax
  400bd6:	74 05                	je     400bdd <_init+0x15>
  400bd8:	e8 33 01 00 00       	callq  400d10 <__gmon_start__@plt>
  400bdd:	48 83 c4 08          	add    $0x8,%rsp
  400be1:	c3                   	retq   

Disassembly of section .plt:

0000000000400bf0 <.plt>:
  400bf0:	ff 35 12 44 20 00    	pushq  0x204412(%rip)        # 605008 <_GLOBAL_OFFSET_TABLE_+0x8>
  400bf6:	ff 25 14 44 20 00    	jmpq   *0x204414(%rip)        # 605010 <_GLOBAL_OFFSET_TABLE_+0x10>
  400bfc:	0f 1f 40 00          	nopl   0x0(%rax)

0000000000400c00 <strcasecmp@plt>:
  400c00:	ff 25 12 44 20 00    	jmpq   *0x204412(%rip)        # 605018 <strcasecmp@GLIBC_2.2.5>
  400c06:	68 00 00 00 00       	pushq  $0x0
  400c0b:	e9 e0 ff ff ff       	jmpq   400bf0 <.plt>

0000000000400c10 <__errno_location@plt>:
  400c10:	ff 25 0a 44 20 00    	jmpq   *0x20440a(%rip)        # 605020 <__errno_location@GLIBC_2.2.5>
  400c16:	68 01 00 00 00       	pushq  $0x1
  400c1b:	e9 d0 ff ff ff       	jmpq   400bf0 <.plt>

0000000000400c20 <srandom@plt>:
  400c20:	ff 25 02 44 20 00    	jmpq   *0x204402(%rip)        # 605028 <srandom@GLIBC_2.2.5>
  400c26:	68 02 00 00 00       	pushq  $0x2
  400c2b:	e9 c0 ff ff ff       	jmpq   400bf0 <.plt>

0000000000400c30 <strncmp@plt>:
  400c30:	ff 25 fa 43 20 00    	jmpq   *0x2043fa(%rip)        # 605030 <strncmp@GLIBC_2.2.5>
  400c36:	68 03 00 00 00       	pushq  $0x3
  400c3b:	e9 b0 ff ff ff       	jmpq   400bf0 <.plt>

0000000000400c40 <strcpy@plt>:
  400c40:	ff 25 f2 43 20 00    	jmpq   *0x2043f2(%rip)        # 605038 <strcpy@GLIBC_2.2.5>
  400c46:	68 04 00 00 00       	pushq  $0x4
  400c4b:	e9 a0 ff ff ff       	jmpq   400bf0 <.plt>

0000000000400c50 <puts@plt>:
  400c50:	ff 25 ea 43 20 00    	jmpq   *0x2043ea(%rip)        # 605040 <puts@GLIBC_2.2.5>
  400c56:	68 05 00 00 00       	pushq  $0x5
  400c5b:	e9 90 ff ff ff       	jmpq   400bf0 <.plt>

0000000000400c60 <write@plt>:
  400c60:	ff 25 e2 43 20 00    	jmpq   *0x2043e2(%rip)        # 605048 <write@GLIBC_2.2.5>
  400c66:	68 06 00 00 00       	pushq  $0x6
  400c6b:	e9 80 ff ff ff       	jmpq   400bf0 <.plt>

0000000000400c70 <mmap@plt>:
  400c70:	ff 25 da 43 20 00    	jmpq   *0x2043da(%rip)        # 605050 <mmap@GLIBC_2.2.5>
  400c76:	68 07 00 00 00       	pushq  $0x7
  400c7b:	e9 70 ff ff ff       	jmpq   400bf0 <.plt>

0000000000400c80 <printf@plt>:
  400c80:	ff 25 d2 43 20 00    	jmpq   *0x2043d2(%rip)        # 605058 <printf@GLIBC_2.2.5>
  400c86:	68 08 00 00 00       	pushq  $0x8
  400c8b:	e9 60 ff ff ff       	jmpq   400bf0 <.plt>

0000000000400c90 <memset@plt>:
  400c90:	ff 25 ca 43 20 00    	jmpq   *0x2043ca(%rip)        # 605060 <memset@GLIBC_2.2.5>
  400c96:	68 09 00 00 00       	pushq  $0x9
  400c9b:	e9 50 ff ff ff       	jmpq   400bf0 <.plt>

0000000000400ca0 <alarm@plt>:
  400ca0:	ff 25 c2 43 20 00    	jmpq   *0x2043c2(%rip)        # 605068 <alarm@GLIBC_2.2.5>
  400ca6:	68 0a 00 00 00       	pushq  $0xa
  400cab:	e9 40 ff ff ff       	jmpq   400bf0 <.plt>

0000000000400cb0 <close@plt>:
  400cb0:	ff 25 ba 43 20 00    	jmpq   *0x2043ba(%rip)        # 605070 <close@GLIBC_2.2.5>
  400cb6:	68 0b 00 00 00       	pushq  $0xb
  400cbb:	e9 30 ff ff ff       	jmpq   400bf0 <.plt>

0000000000400cc0 <read@plt>:
  400cc0:	ff 25 b2 43 20 00    	jmpq   *0x2043b2(%rip)        # 605078 <read@GLIBC_2.2.5>
  400cc6:	68 0c 00 00 00       	pushq  $0xc
  400ccb:	e9 20 ff ff ff       	jmpq   400bf0 <.plt>

0000000000400cd0 <__libc_start_main@plt>:
  400cd0:	ff 25 aa 43 20 00    	jmpq   *0x2043aa(%rip)        # 605080 <__libc_start_main@GLIBC_2.2.5>
  400cd6:	68 0d 00 00 00       	pushq  $0xd
  400cdb:	e9 10 ff ff ff       	jmpq   400bf0 <.plt>

0000000000400ce0 <signal@plt>:
  400ce0:	ff 25 a2 43 20 00    	jmpq   *0x2043a2(%rip)        # 605088 <signal@GLIBC_2.2.5>
  400ce6:	68 0e 00 00 00       	pushq  $0xe
  400ceb:	e9 00 ff ff ff       	jmpq   400bf0 <.plt>

0000000000400cf0 <gethostbyname@plt>:
  400cf0:	ff 25 9a 43 20 00    	jmpq   *0x20439a(%rip)        # 605090 <gethostbyname@GLIBC_2.2.5>
  400cf6:	68 0f 00 00 00       	pushq  $0xf
  400cfb:	e9 f0 fe ff ff       	jmpq   400bf0 <.plt>

0000000000400d00 <fprintf@plt>:
  400d00:	ff 25 92 43 20 00    	jmpq   *0x204392(%rip)        # 605098 <fprintf@GLIBC_2.2.5>
  400d06:	68 10 00 00 00       	pushq  $0x10
  400d0b:	e9 e0 fe ff ff       	jmpq   400bf0 <.plt>

0000000000400d10 <__gmon_start__@plt>:
  400d10:	ff 25 8a 43 20 00    	jmpq   *0x20438a(%rip)        # 6050a0 <__gmon_start__>
  400d16:	68 11 00 00 00       	pushq  $0x11
  400d1b:	e9 d0 fe ff ff       	jmpq   400bf0 <.plt>

0000000000400d20 <strtol@plt>:
  400d20:	ff 25 82 43 20 00    	jmpq   *0x204382(%rip)        # 6050a8 <strtol@GLIBC_2.2.5>
  400d26:	68 12 00 00 00       	pushq  $0x12
  400d2b:	e9 c0 fe ff ff       	jmpq   400bf0 <.plt>

0000000000400d30 <memcpy@plt>:
  400d30:	ff 25 7a 43 20 00    	jmpq   *0x20437a(%rip)        # 6050b0 <memcpy@GLIBC_2.14>
  400d36:	68 13 00 00 00       	pushq  $0x13
  400d3b:	e9 b0 fe ff ff       	jmpq   400bf0 <.plt>

0000000000400d40 <time@plt>:
  400d40:	ff 25 72 43 20 00    	jmpq   *0x204372(%rip)        # 6050b8 <time@GLIBC_2.2.5>
  400d46:	68 14 00 00 00       	pushq  $0x14
  400d4b:	e9 a0 fe ff ff       	jmpq   400bf0 <.plt>

0000000000400d50 <random@plt>:
  400d50:	ff 25 6a 43 20 00    	jmpq   *0x20436a(%rip)        # 6050c0 <random@GLIBC_2.2.5>
  400d56:	68 15 00 00 00       	pushq  $0x15
  400d5b:	e9 90 fe ff ff       	jmpq   400bf0 <.plt>

0000000000400d60 <_IO_getc@plt>:
  400d60:	ff 25 62 43 20 00    	jmpq   *0x204362(%rip)        # 6050c8 <_IO_getc@GLIBC_2.2.5>
  400d66:	68 16 00 00 00       	pushq  $0x16
  400d6b:	e9 80 fe ff ff       	jmpq   400bf0 <.plt>

0000000000400d70 <__isoc99_sscanf@plt>:
  400d70:	ff 25 5a 43 20 00    	jmpq   *0x20435a(%rip)        # 6050d0 <__isoc99_sscanf@GLIBC_2.7>
  400d76:	68 17 00 00 00       	pushq  $0x17
  400d7b:	e9 70 fe ff ff       	jmpq   400bf0 <.plt>

0000000000400d80 <munmap@plt>:
  400d80:	ff 25 52 43 20 00    	jmpq   *0x204352(%rip)        # 6050d8 <munmap@GLIBC_2.2.5>
  400d86:	68 18 00 00 00       	pushq  $0x18
  400d8b:	e9 60 fe ff ff       	jmpq   400bf0 <.plt>

0000000000400d90 <bcopy@plt>:
  400d90:	ff 25 4a 43 20 00    	jmpq   *0x20434a(%rip)        # 6050e0 <bcopy@GLIBC_2.2.5>
  400d96:	68 19 00 00 00       	pushq  $0x19
  400d9b:	e9 50 fe ff ff       	jmpq   400bf0 <.plt>

0000000000400da0 <fopen@plt>:
  400da0:	ff 25 42 43 20 00    	jmpq   *0x204342(%rip)        # 6050e8 <fopen@GLIBC_2.2.5>
  400da6:	68 1a 00 00 00       	pushq  $0x1a
  400dab:	e9 40 fe ff ff       	jmpq   400bf0 <.plt>

0000000000400db0 <getopt@plt>:
  400db0:	ff 25 3a 43 20 00    	jmpq   *0x20433a(%rip)        # 6050f0 <getopt@GLIBC_2.2.5>
  400db6:	68 1b 00 00 00       	pushq  $0x1b
  400dbb:	e9 30 fe ff ff       	jmpq   400bf0 <.plt>

0000000000400dc0 <strtoul@plt>:
  400dc0:	ff 25 32 43 20 00    	jmpq   *0x204332(%rip)        # 6050f8 <strtoul@GLIBC_2.2.5>
  400dc6:	68 1c 00 00 00       	pushq  $0x1c
  400dcb:	e9 20 fe ff ff       	jmpq   400bf0 <.plt>

0000000000400dd0 <gethostname@plt>:
  400dd0:	ff 25 2a 43 20 00    	jmpq   *0x20432a(%rip)        # 605100 <gethostname@GLIBC_2.2.5>
  400dd6:	68 1d 00 00 00       	pushq  $0x1d
  400ddb:	e9 10 fe ff ff       	jmpq   400bf0 <.plt>

0000000000400de0 <sprintf@plt>:
  400de0:	ff 25 22 43 20 00    	jmpq   *0x204322(%rip)        # 605108 <sprintf@GLIBC_2.2.5>
  400de6:	68 1e 00 00 00       	pushq  $0x1e
  400deb:	e9 00 fe ff ff       	jmpq   400bf0 <.plt>

0000000000400df0 <exit@plt>:
  400df0:	ff 25 1a 43 20 00    	jmpq   *0x20431a(%rip)        # 605110 <exit@GLIBC_2.2.5>
  400df6:	68 1f 00 00 00       	pushq  $0x1f
  400dfb:	e9 f0 fd ff ff       	jmpq   400bf0 <.plt>

0000000000400e00 <connect@plt>:
  400e00:	ff 25 12 43 20 00    	jmpq   *0x204312(%rip)        # 605118 <connect@GLIBC_2.2.5>
  400e06:	68 20 00 00 00       	pushq  $0x20
  400e0b:	e9 e0 fd ff ff       	jmpq   400bf0 <.plt>

0000000000400e10 <socket@plt>:
  400e10:	ff 25 0a 43 20 00    	jmpq   *0x20430a(%rip)        # 605120 <socket@GLIBC_2.2.5>
  400e16:	68 21 00 00 00       	pushq  $0x21
  400e1b:	e9 d0 fd ff ff       	jmpq   400bf0 <.plt>

Disassembly of section .text:

0000000000400e20 <_start>:
  400e20:	31 ed                	xor    %ebp,%ebp
  400e22:	49 89 d1             	mov    %rdx,%r9
  400e25:	5e                   	pop    %rsi
  400e26:	48 89 e2             	mov    %rsp,%rdx
  400e29:	48 83 e4 f0          	and    $0xfffffffffffffff0,%rsp
  400e2d:	50                   	push   %rax
  400e2e:	54                   	push   %rsp
  400e2f:	49 c7 c0 70 2c 40 00 	mov    $0x402c70,%r8
  400e36:	48 c7 c1 00 2c 40 00 	mov    $0x402c00,%rcx
  400e3d:	48 c7 c7 e0 10 40 00 	mov    $0x4010e0,%rdi
  400e44:	e8 87 fe ff ff       	callq  400cd0 <__libc_start_main@plt>
  400e49:	f4                   	hlt    
  400e4a:	66 0f 1f 44 00 00    	nopw   0x0(%rax,%rax,1)

0000000000400e50 <deregister_tm_clones>:
  400e50:	b8 b7 54 60 00       	mov    $0x6054b7,%eax
  400e55:	55                   	push   %rbp
  400e56:	48 2d b0 54 60 00    	sub    $0x6054b0,%rax
  400e5c:	48 83 f8 0e          	cmp    $0xe,%rax
  400e60:	48 89 e5             	mov    %rsp,%rbp
  400e63:	77 02                	ja     400e67 <deregister_tm_clones+0x17>
  400e65:	5d                   	pop    %rbp
  400e66:	c3                   	retq   
  400e67:	b8 00 00 00 00       	mov    $0x0,%eax
  400e6c:	48 85 c0             	test   %rax,%rax
  400e6f:	74 f4                	je     400e65 <deregister_tm_clones+0x15>
  400e71:	5d                   	pop    %rbp
  400e72:	bf b0 54 60 00       	mov    $0x6054b0,%edi
  400e77:	ff e0                	jmpq   *%rax
  400e79:	0f 1f 80 00 00 00 00 	nopl   0x0(%rax)

0000000000400e80 <register_tm_clones>:
  400e80:	b8 b0 54 60 00       	mov    $0x6054b0,%eax
  400e85:	55                   	push   %rbp
  400e86:	48 2d b0 54 60 00    	sub    $0x6054b0,%rax
  400e8c:	48 c1 f8 03          	sar    $0x3,%rax
  400e90:	48 89 e5             	mov    %rsp,%rbp
  400e93:	48 89 c2             	mov    %rax,%rdx
  400e96:	48 c1 ea 3f          	shr    $0x3f,%rdx
  400e9a:	48 01 d0             	add    %rdx,%rax
  400e9d:	48 d1 f8             	sar    %rax
  400ea0:	75 02                	jne    400ea4 <register_tm_clones+0x24>
  400ea2:	5d                   	pop    %rbp
  400ea3:	c3                   	retq   
  400ea4:	ba 00 00 00 00       	mov    $0x0,%edx
  400ea9:	48 85 d2             	test   %rdx,%rdx
  400eac:	74 f4                	je     400ea2 <register_tm_clones+0x22>
  400eae:	5d                   	pop    %rbp
  400eaf:	48 89 c6             	mov    %rax,%rsi
  400eb2:	bf b0 54 60 00       	mov    $0x6054b0,%edi
  400eb7:	ff e2                	jmpq   *%rdx
  400eb9:	0f 1f 80 00 00 00 00 	nopl   0x0(%rax)

0000000000400ec0 <__do_global_dtors_aux>:
  400ec0:	80 3d 11 46 20 00 00 	cmpb   $0x0,0x204611(%rip)        # 6054d8 <completed.6355>
  400ec7:	75 11                	jne    400eda <__do_global_dtors_aux+0x1a>
  400ec9:	55                   	push   %rbp
  400eca:	48 89 e5             	mov    %rsp,%rbp
  400ecd:	e8 7e ff ff ff       	callq  400e50 <deregister_tm_clones>
  400ed2:	5d                   	pop    %rbp
  400ed3:	c6 05 fe 45 20 00 01 	movb   $0x1,0x2045fe(%rip)        # 6054d8 <completed.6355>
  400eda:	f3 c3                	repz retq 
  400edc:	0f 1f 40 00          	nopl   0x0(%rax)

0000000000400ee0 <frame_dummy>:
  400ee0:	48 83 3d 38 3f 20 00 	cmpq   $0x0,0x203f38(%rip)        # 604e20 <__JCR_END__>
  400ee7:	00 
  400ee8:	74 1e                	je     400f08 <frame_dummy+0x28>
  400eea:	b8 00 00 00 00       	mov    $0x0,%eax
  400eef:	48 85 c0             	test   %rax,%rax
  400ef2:	74 14                	je     400f08 <frame_dummy+0x28>
  400ef4:	55                   	push   %rbp
  400ef5:	bf 20 4e 60 00       	mov    $0x604e20,%edi
  400efa:	48 89 e5             	mov    %rsp,%rbp
  400efd:	ff d0                	callq  *%rax
  400eff:	5d                   	pop    %rbp
  400f00:	e9 7b ff ff ff       	jmpq   400e80 <register_tm_clones>
  400f05:	0f 1f 00             	nopl   (%rax)
  400f08:	e9 73 ff ff ff       	jmpq   400e80 <register_tm_clones>
  400f0d:	0f 1f 00             	nopl   (%rax)

0000000000400f10 <usage>:
  400f10:	48 83 ec 08          	sub    $0x8,%rsp
  400f14:	48 89 fe             	mov    %rdi,%rsi
  400f17:	83 3d ea 45 20 00 00 	cmpl   $0x0,0x2045ea(%rip)        # 605508 <is_checker>
  400f1e:	74 39                	je     400f59 <usage+0x49>
  400f20:	bf 90 2c 40 00       	mov    $0x402c90,%edi
  400f25:	b8 00 00 00 00       	mov    $0x0,%eax
  400f2a:	e8 51 fd ff ff       	callq  400c80 <printf@plt>
  400f2f:	bf c8 2c 40 00       	mov    $0x402cc8,%edi
  400f34:	e8 17 fd ff ff       	callq  400c50 <puts@plt>
  400f39:	bf 40 2e 40 00       	mov    $0x402e40,%edi
  400f3e:	e8 0d fd ff ff       	callq  400c50 <puts@plt>
  400f43:	bf f0 2c 40 00       	mov    $0x402cf0,%edi
  400f48:	e8 03 fd ff ff       	callq  400c50 <puts@plt>
  400f4d:	bf 5a 2e 40 00       	mov    $0x402e5a,%edi
  400f52:	e8 f9 fc ff ff       	callq  400c50 <puts@plt>
  400f57:	eb 2d                	jmp    400f86 <usage+0x76>
  400f59:	bf 76 2e 40 00       	mov    $0x402e76,%edi
  400f5e:	b8 00 00 00 00       	mov    $0x0,%eax
  400f63:	e8 18 fd ff ff       	callq  400c80 <printf@plt>
  400f68:	bf 18 2d 40 00       	mov    $0x402d18,%edi
  400f6d:	e8 de fc ff ff       	callq  400c50 <puts@plt>
  400f72:	bf 40 2d 40 00       	mov    $0x402d40,%edi
  400f77:	e8 d4 fc ff ff       	callq  400c50 <puts@plt>
  400f7c:	bf 94 2e 40 00       	mov    $0x402e94,%edi
  400f81:	e8 ca fc ff ff       	callq  400c50 <puts@plt>
  400f86:	bf 00 00 00 00       	mov    $0x0,%edi
  400f8b:	e8 60 fe ff ff       	callq  400df0 <exit@plt>

0000000000400f90 <initialize_target>:
  400f90:	55                   	push   %rbp
  400f91:	53                   	push   %rbx
  400f92:	48 81 ec 08 21 00 00 	sub    $0x2108,%rsp
  400f99:	89 f5                	mov    %esi,%ebp
  400f9b:	89 3d 57 45 20 00    	mov    %edi,0x204557(%rip)        # 6054f8 <check_level>
  400fa1:	8b 3d c1 41 20 00    	mov    0x2041c1(%rip),%edi        # 605168 <target_id>
  400fa7:	e8 27 1c 00 00       	callq  402bd3 <gencookie>
  400fac:	89 05 52 45 20 00    	mov    %eax,0x204552(%rip)        # 605504 <cookie>
  400fb2:	89 c7                	mov    %eax,%edi
  400fb4:	e8 1a 1c 00 00       	callq  402bd3 <gencookie>
  400fb9:	89 05 41 45 20 00    	mov    %eax,0x204541(%rip)        # 605500 <authkey>
  400fbf:	8b 05 a3 41 20 00    	mov    0x2041a3(%rip),%eax        # 605168 <target_id>
  400fc5:	8d 78 01             	lea    0x1(%rax),%edi
  400fc8:	e8 53 fc ff ff       	callq  400c20 <srandom@plt>
  400fcd:	e8 7e fd ff ff       	callq  400d50 <random@plt>
  400fd2:	89 c7                	mov    %eax,%edi
  400fd4:	e8 ca 02 00 00       	callq  4012a3 <scramble>
  400fd9:	89 c3                	mov    %eax,%ebx
  400fdb:	85 ed                	test   %ebp,%ebp
  400fdd:	74 18                	je     400ff7 <initialize_target+0x67>
  400fdf:	bf 00 00 00 00       	mov    $0x0,%edi
  400fe4:	e8 57 fd ff ff       	callq  400d40 <time@plt>
  400fe9:	89 c7                	mov    %eax,%edi
  400feb:	e8 30 fc ff ff       	callq  400c20 <srandom@plt>
  400ff0:	e8 5b fd ff ff       	callq  400d50 <random@plt>
  400ff5:	eb 05                	jmp    400ffc <initialize_target+0x6c>
  400ff7:	b8 00 00 00 00       	mov    $0x0,%eax
  400ffc:	01 c3                	add    %eax,%ebx
  400ffe:	0f b7 db             	movzwl %bx,%ebx
  401001:	8d 04 dd 00 01 00 00 	lea    0x100(,%rbx,8),%eax
  401008:	89 c0                	mov    %eax,%eax
  40100a:	48 89 05 8f 44 20 00 	mov    %rax,0x20448f(%rip)        # 6054a0 <buf_offset>
  401011:	c6 05 10 51 20 00 72 	movb   $0x72,0x205110(%rip)        # 606128 <target_prefix>
  401018:	83 3d 89 44 20 00 00 	cmpl   $0x0,0x204489(%rip)        # 6054a8 <notify>
  40101f:	0f 84 b1 00 00 00    	je     4010d6 <initialize_target+0x146>
  401025:	83 3d dc 44 20 00 00 	cmpl   $0x0,0x2044dc(%rip)        # 605508 <is_checker>
  40102c:	0f 85 a4 00 00 00    	jne    4010d6 <initialize_target+0x146>
  401032:	be 00 01 00 00       	mov    $0x100,%esi
  401037:	48 89 e7             	mov    %rsp,%rdi
  40103a:	e8 91 fd ff ff       	callq  400dd0 <gethostname@plt>
  40103f:	85 c0                	test   %eax,%eax
  401041:	74 25                	je     401068 <initialize_target+0xd8>
  401043:	bf 70 2d 40 00       	mov    $0x402d70,%edi
  401048:	e8 03 fc ff ff       	callq  400c50 <puts@plt>
  40104d:	bf 08 00 00 00       	mov    $0x8,%edi
  401052:	e8 99 fd ff ff       	callq  400df0 <exit@plt>
  401057:	48 89 e6             	mov    %rsp,%rsi
  40105a:	e8 a1 fb ff ff       	callq  400c00 <strcasecmp@plt>
  40105f:	85 c0                	test   %eax,%eax
  401061:	74 21                	je     401084 <initialize_target+0xf4>
  401063:	83 c3 01             	add    $0x1,%ebx
  401066:	eb 05                	jmp    40106d <initialize_target+0xdd>
  401068:	bb 00 00 00 00       	mov    $0x0,%ebx
  40106d:	48 63 c3             	movslq %ebx,%rax
  401070:	48 8b 3c c5 80 51 60 	mov    0x605180(,%rax,8),%rdi
  401077:	00 
  401078:	48 85 ff             	test   %rdi,%rdi
  40107b:	75 da                	jne    401057 <initialize_target+0xc7>
  40107d:	b8 00 00 00 00       	mov    $0x0,%eax
  401082:	eb 05                	jmp    401089 <initialize_target+0xf9>
  401084:	b8 01 00 00 00       	mov    $0x1,%eax
  401089:	85 c0                	test   %eax,%eax
  40108b:	75 17                	jne    4010a4 <initialize_target+0x114>
  40108d:	48 89 e6             	mov    %rsp,%rsi
  401090:	bf a8 2d 40 00       	mov    $0x402da8,%edi
  401095:	e8 e6 fb ff ff       	callq  400c80 <printf@plt>
  40109a:	bf 08 00 00 00       	mov    $0x8,%edi
  40109f:	e8 4c fd ff ff       	callq  400df0 <exit@plt>
  4010a4:	48 8d bc 24 00 01 00 	lea    0x100(%rsp),%rdi
  4010ab:	00 
  4010ac:	e8 b9 18 00 00       	callq  40296a <init_driver>
  4010b1:	85 c0                	test   %eax,%eax
  4010b3:	79 21                	jns    4010d6 <initialize_target+0x146>
  4010b5:	48 8d b4 24 00 01 00 	lea    0x100(%rsp),%rsi
  4010bc:	00 
  4010bd:	bf e8 2d 40 00       	mov    $0x402de8,%edi
  4010c2:	b8 00 00 00 00       	mov    $0x0,%eax
  4010c7:	e8 b4 fb ff ff       	callq  400c80 <printf@plt>
  4010cc:	bf 08 00 00 00       	mov    $0x8,%edi
  4010d1:	e8 1a fd ff ff       	callq  400df0 <exit@plt>
  4010d6:	48 81 c4 08 21 00 00 	add    $0x2108,%rsp
  4010dd:	5b                   	pop    %rbx
  4010de:	5d                   	pop    %rbp
  4010df:	c3                   	retq   

00000000004010e0 <main>:
  4010e0:	41 56                	push   %r14
  4010e2:	41 55                	push   %r13
  4010e4:	41 54                	push   %r12
  4010e6:	55                   	push   %rbp
  4010e7:	53                   	push   %rbx
  4010e8:	41 89 fc             	mov    %edi,%r12d
  4010eb:	48 89 f3             	mov    %rsi,%rbx
  4010ee:	be 91 1d 40 00       	mov    $0x401d91,%esi
  4010f3:	bf 0b 00 00 00       	mov    $0xb,%edi
  4010f8:	e8 e3 fb ff ff       	callq  400ce0 <signal@plt>
  4010fd:	be 43 1d 40 00       	mov    $0x401d43,%esi
  401102:	bf 07 00 00 00       	mov    $0x7,%edi
  401107:	e8 d4 fb ff ff       	callq  400ce0 <signal@plt>
  40110c:	be df 1d 40 00       	mov    $0x401ddf,%esi
  401111:	bf 04 00 00 00       	mov    $0x4,%edi
  401116:	e8 c5 fb ff ff       	callq  400ce0 <signal@plt>
  40111b:	83 3d e6 43 20 00 00 	cmpl   $0x0,0x2043e6(%rip)        # 605508 <is_checker>
  401122:	74 20                	je     401144 <main+0x64>
  401124:	be 2d 1e 40 00       	mov    $0x401e2d,%esi
  401129:	bf 0e 00 00 00       	mov    $0xe,%edi
  40112e:	e8 ad fb ff ff       	callq  400ce0 <signal@plt>
  401133:	bf 05 00 00 00       	mov    $0x5,%edi
  401138:	e8 63 fb ff ff       	callq  400ca0 <alarm@plt>
  40113d:	bd b2 2e 40 00       	mov    $0x402eb2,%ebp
  401142:	eb 05                	jmp    401149 <main+0x69>
  401144:	bd ad 2e 40 00       	mov    $0x402ead,%ebp
  401149:	48 8b 05 70 43 20 00 	mov    0x204370(%rip),%rax        # 6054c0 <stdin@@GLIBC_2.2.5>
  401150:	48 89 05 99 43 20 00 	mov    %rax,0x204399(%rip)        # 6054f0 <infile>
  401157:	41 bd 00 00 00 00    	mov    $0x0,%r13d
  40115d:	41 be 00 00 00 00    	mov    $0x0,%r14d
  401163:	e9 b9 00 00 00       	jmpq   401221 <main+0x141>
  401168:	83 e8 61             	sub    $0x61,%eax
  40116b:	3c 10                	cmp    $0x10,%al
  40116d:	0f 87 93 00 00 00    	ja     401206 <main+0x126>
  401173:	0f b6 c0             	movzbl %al,%eax
  401176:	ff 24 c5 f8 2e 40 00 	jmpq   *0x402ef8(,%rax,8)
  40117d:	48 8b 3b             	mov    (%rbx),%rdi
  401180:	e8 8b fd ff ff       	callq  400f10 <usage>
  401185:	be 4d 32 40 00       	mov    $0x40324d,%esi
  40118a:	48 8b 3d 37 43 20 00 	mov    0x204337(%rip),%rdi        # 6054c8 <optarg@@GLIBC_2.2.5>
  401191:	e8 0a fc ff ff       	callq  400da0 <fopen@plt>
  401196:	48 89 05 53 43 20 00 	mov    %rax,0x204353(%rip)        # 6054f0 <infile>
  40119d:	48 85 c0             	test   %rax,%rax
  4011a0:	75 7f                	jne    401221 <main+0x141>
  4011a2:	48 8b 15 1f 43 20 00 	mov    0x20431f(%rip),%rdx        # 6054c8 <optarg@@GLIBC_2.2.5>
  4011a9:	be ba 2e 40 00       	mov    $0x402eba,%esi
  4011ae:	48 8b 3d 1b 43 20 00 	mov    0x20431b(%rip),%rdi        # 6054d0 <stderr@@GLIBC_2.2.5>
  4011b5:	e8 46 fb ff ff       	callq  400d00 <fprintf@plt>
  4011ba:	b8 01 00 00 00       	mov    $0x1,%eax
  4011bf:	e9 d6 00 00 00       	jmpq   40129a <main+0x1ba>
  4011c4:	ba 10 00 00 00       	mov    $0x10,%edx
  4011c9:	be 00 00 00 00       	mov    $0x0,%esi
  4011ce:	48 8b 3d f3 42 20 00 	mov    0x2042f3(%rip),%rdi        # 6054c8 <optarg@@GLIBC_2.2.5>
  4011d5:	e8 e6 fb ff ff       	callq  400dc0 <strtoul@plt>
  4011da:	41 89 c6             	mov    %eax,%r14d
  4011dd:	eb 42                	jmp    401221 <main+0x141>
  4011df:	ba 0a 00 00 00       	mov    $0xa,%edx
  4011e4:	be 00 00 00 00       	mov    $0x0,%esi
  4011e9:	48 8b 3d d8 42 20 00 	mov    0x2042d8(%rip),%rdi        # 6054c8 <optarg@@GLIBC_2.2.5>
  4011f0:	e8 2b fb ff ff       	callq  400d20 <strtol@plt>
  4011f5:	41 89 c5             	mov    %eax,%r13d
  4011f8:	eb 27                	jmp    401221 <main+0x141>
  4011fa:	c7 05 a4 42 20 00 00 	movl   $0x0,0x2042a4(%rip)        # 6054a8 <notify>
  401201:	00 00 00 
  401204:	eb 1b                	jmp    401221 <main+0x141>
  401206:	40 0f be f6          	movsbl %sil,%esi
  40120a:	bf d7 2e 40 00       	mov    $0x402ed7,%edi
  40120f:	b8 00 00 00 00       	mov    $0x0,%eax
  401214:	e8 67 fa ff ff       	callq  400c80 <printf@plt>
  401219:	48 8b 3b             	mov    (%rbx),%rdi
  40121c:	e8 ef fc ff ff       	callq  400f10 <usage>
  401221:	48 89 ea             	mov    %rbp,%rdx
  401224:	48 89 de             	mov    %rbx,%rsi
  401227:	44 89 e7             	mov    %r12d,%edi
  40122a:	e8 81 fb ff ff       	callq  400db0 <getopt@plt>
  40122f:	89 c6                	mov    %eax,%esi
  401231:	3c ff                	cmp    $0xff,%al
  401233:	0f 85 2f ff ff ff    	jne    401168 <main+0x88>
  401239:	be 01 00 00 00       	mov    $0x1,%esi
  40123e:	44 89 ef             	mov    %r13d,%edi
  401241:	e8 4a fd ff ff       	callq  400f90 <initialize_target>
  401246:	83 3d bb 42 20 00 00 	cmpl   $0x0,0x2042bb(%rip)        # 605508 <is_checker>
  40124d:	74 25                	je     401274 <main+0x194>
  40124f:	44 3b 35 aa 42 20 00 	cmp    0x2042aa(%rip),%r14d        # 605500 <authkey>
  401256:	74 1c                	je     401274 <main+0x194>
  401258:	44 89 f6             	mov    %r14d,%esi
  40125b:	bf 10 2e 40 00       	mov    $0x402e10,%edi
  401260:	b8 00 00 00 00       	mov    $0x0,%eax
  401265:	e8 16 fa ff ff       	callq  400c80 <printf@plt>
  40126a:	b8 00 00 00 00       	mov    $0x0,%eax
  40126f:	e8 d7 07 00 00       	callq  401a4b <check_fail>
  401274:	8b 35 8a 42 20 00    	mov    0x20428a(%rip),%esi        # 605504 <cookie>
  40127a:	bf ea 2e 40 00       	mov    $0x402eea,%edi
  40127f:	b8 00 00 00 00       	mov    $0x0,%eax
  401284:	e8 f7 f9 ff ff       	callq  400c80 <printf@plt>
  401289:	48 8b 3d 10 42 20 00 	mov    0x204210(%rip),%rdi        # 6054a0 <buf_offset>
  401290:	e8 e6 0b 00 00       	callq  401e7b <launch>
  401295:	b8 00 00 00 00       	mov    $0x0,%eax
  40129a:	5b                   	pop    %rbx
  40129b:	5d                   	pop    %rbp
  40129c:	41 5c                	pop    %r12
  40129e:	41 5d                	pop    %r13
  4012a0:	41 5e                	pop    %r14
  4012a2:	c3                   	retq   

00000000004012a3 <scramble>:
  4012a3:	b8 00 00 00 00       	mov    $0x0,%eax
  4012a8:	eb 11                	jmp    4012bb <scramble+0x18>
  4012aa:	69 c8 6c 0b 00 00    	imul   $0xb6c,%eax,%ecx
  4012b0:	01 f9                	add    %edi,%ecx
  4012b2:	89 c2                	mov    %eax,%edx
  4012b4:	89 4c 94 d0          	mov    %ecx,-0x30(%rsp,%rdx,4)
  4012b8:	83 c0 01             	add    $0x1,%eax
  4012bb:	83 f8 09             	cmp    $0x9,%eax
  4012be:	76 ea                	jbe    4012aa <scramble+0x7>
  4012c0:	8b 44 24 f4          	mov    -0xc(%rsp),%eax
  4012c4:	69 c0 15 09 00 00    	imul   $0x915,%eax,%eax
  4012ca:	89 44 24 f4          	mov    %eax,-0xc(%rsp)
  4012ce:	8b 44 24 f4          	mov    -0xc(%rsp),%eax
  4012d2:	69 c0 f5 aa 00 00    	imul   $0xaaf5,%eax,%eax
  4012d8:	89 44 24 f4          	mov    %eax,-0xc(%rsp)
  4012dc:	8b 44 24 e0          	mov    -0x20(%rsp),%eax
  4012e0:	69 c0 33 46 00 00    	imul   $0x4633,%eax,%eax
  4012e6:	89 44 24 e0          	mov    %eax,-0x20(%rsp)
  4012ea:	8b 44 24 ec          	mov    -0x14(%rsp),%eax
  4012ee:	69 c0 df 19 00 00    	imul   $0x19df,%eax,%eax
  4012f4:	89 44 24 ec          	mov    %eax,-0x14(%rsp)
  4012f8:	8b 44 24 f4          	mov    -0xc(%rsp),%eax
  4012fc:	69 c0 5e 08 00 00    	imul   $0x85e,%eax,%eax
  401302:	89 44 24 f4          	mov    %eax,-0xc(%rsp)
  401306:	8b 44 24 ec          	mov    -0x14(%rsp),%eax
  40130a:	69 c0 2e 37 00 00    	imul   $0x372e,%eax,%eax
  401310:	89 44 24 ec          	mov    %eax,-0x14(%rsp)
  401314:	8b 44 24 d4          	mov    -0x2c(%rsp),%eax
  401318:	69 c0 21 f6 00 00    	imul   $0xf621,%eax,%eax
  40131e:	89 44 24 d4          	mov    %eax,-0x2c(%rsp)
  401322:	8b 44 24 ec          	mov    -0x14(%rsp),%eax
  401326:	69 c0 2a 13 00 00    	imul   $0x132a,%eax,%eax
  40132c:	89 44 24 ec          	mov    %eax,-0x14(%rsp)
  401330:	8b 44 24 e0          	mov    -0x20(%rsp),%eax
  401334:	69 c0 1d 38 00 00    	imul   $0x381d,%eax,%eax
  40133a:	89 44 24 e0          	mov    %eax,-0x20(%rsp)
  40133e:	8b 44 24 e8          	mov    -0x18(%rsp),%eax
  401342:	69 c0 cb 23 00 00    	imul   $0x23cb,%eax,%eax
  401348:	89 44 24 e8          	mov    %eax,-0x18(%rsp)
  40134c:	8b 44 24 f0          	mov    -0x10(%rsp),%eax
  401350:	69 c0 c8 58 00 00    	imul   $0x58c8,%eax,%eax
  401356:	89 44 24 f0          	mov    %eax,-0x10(%rsp)
  40135a:	8b 44 24 dc          	mov    -0x24(%rsp),%eax
  40135e:	69 c0 da 99 00 00    	imul   $0x99da,%eax,%eax
  401364:	89 44 24 dc          	mov    %eax,-0x24(%rsp)
  401368:	8b 44 24 d0          	mov    -0x30(%rsp),%eax
  40136c:	69 c0 59 e2 00 00    	imul   $0xe259,%eax,%eax
  401372:	89 44 24 d0          	mov    %eax,-0x30(%rsp)
  401376:	8b 44 24 d8          	mov    -0x28(%rsp),%eax
  40137a:	69 c0 a7 81 00 00    	imul   $0x81a7,%eax,%eax
  401380:	89 44 24 d8          	mov    %eax,-0x28(%rsp)
  401384:	8b 44 24 f0          	mov    -0x10(%rsp),%eax
  401388:	69 c0 f2 09 00 00    	imul   $0x9f2,%eax,%eax
  40138e:	89 44 24 f0          	mov    %eax,-0x10(%rsp)
  401392:	8b 44 24 f4          	mov    -0xc(%rsp),%eax
  401396:	69 c0 d8 d4 00 00    	imul   $0xd4d8,%eax,%eax
  40139c:	89 44 24 f4          	mov    %eax,-0xc(%rsp)
  4013a0:	8b 44 24 d4          	mov    -0x2c(%rsp),%eax
  4013a4:	69 c0 d7 4e 00 00    	imul   $0x4ed7,%eax,%eax
  4013aa:	89 44 24 d4          	mov    %eax,-0x2c(%rsp)
  4013ae:	8b 44 24 e0          	mov    -0x20(%rsp),%eax
  4013b2:	69 c0 40 60 00 00    	imul   $0x6040,%eax,%eax
  4013b8:	89 44 24 e0          	mov    %eax,-0x20(%rsp)
  4013bc:	8b 44 24 dc          	mov    -0x24(%rsp),%eax
  4013c0:	69 c0 c5 45 00 00    	imul   $0x45c5,%eax,%eax
  4013c6:	89 44 24 dc          	mov    %eax,-0x24(%rsp)
  4013ca:	8b 44 24 d4          	mov    -0x2c(%rsp),%eax
  4013ce:	69 c0 06 f2 00 00    	imul   $0xf206,%eax,%eax
  4013d4:	89 44 24 d4          	mov    %eax,-0x2c(%rsp)
  4013d8:	8b 44 24 e0          	mov    -0x20(%rsp),%eax
  4013dc:	69 c0 98 a8 00 00    	imul   $0xa898,%eax,%eax
  4013e2:	89 44 24 e0          	mov    %eax,-0x20(%rsp)
  4013e6:	8b 44 24 e4          	mov    -0x1c(%rsp),%eax
  4013ea:	69 c0 b6 57 00 00    	imul   $0x57b6,%eax,%eax
  4013f0:	89 44 24 e4          	mov    %eax,-0x1c(%rsp)
  4013f4:	8b 44 24 e4          	mov    -0x1c(%rsp),%eax
  4013f8:	69 c0 06 62 00 00    	imul   $0x6206,%eax,%eax
  4013fe:	89 44 24 e4          	mov    %eax,-0x1c(%rsp)
  401402:	8b 44 24 d4          	mov    -0x2c(%rsp),%eax
  401406:	69 c0 ed 52 00 00    	imul   $0x52ed,%eax,%eax
  40140c:	89 44 24 d4          	mov    %eax,-0x2c(%rsp)
  401410:	8b 44 24 d0          	mov    -0x30(%rsp),%eax
  401414:	69 c0 41 06 00 00    	imul   $0x641,%eax,%eax
  40141a:	89 44 24 d0          	mov    %eax,-0x30(%rsp)
  40141e:	8b 44 24 e0          	mov    -0x20(%rsp),%eax
  401422:	69 c0 4d 6a 00 00    	imul   $0x6a4d,%eax,%eax
  401428:	89 44 24 e0          	mov    %eax,-0x20(%rsp)
  40142c:	8b 44 24 f4          	mov    -0xc(%rsp),%eax
  401430:	69 c0 ed f9 00 00    	imul   $0xf9ed,%eax,%eax
  401436:	89 44 24 f4          	mov    %eax,-0xc(%rsp)
  40143a:	8b 44 24 d0          	mov    -0x30(%rsp),%eax
  40143e:	69 c0 19 ec 00 00    	imul   $0xec19,%eax,%eax
  401444:	89 44 24 d0          	mov    %eax,-0x30(%rsp)
  401448:	8b 44 24 d0          	mov    -0x30(%rsp),%eax
  40144c:	69 c0 51 a2 00 00    	imul   $0xa251,%eax,%eax
  401452:	89 44 24 d0          	mov    %eax,-0x30(%rsp)
  401456:	8b 44 24 ec          	mov    -0x14(%rsp),%eax
  40145a:	69 c0 b2 a5 00 00    	imul   $0xa5b2,%eax,%eax
  401460:	89 44 24 ec          	mov    %eax,-0x14(%rsp)
  401464:	8b 44 24 d8          	mov    -0x28(%rsp),%eax
  401468:	69 c0 c0 93 00 00    	imul   $0x93c0,%eax,%eax
  40146e:	89 44 24 d8          	mov    %eax,-0x28(%rsp)
  401472:	8b 44 24 d4          	mov    -0x2c(%rsp),%eax
  401476:	69 c0 4b bf 00 00    	imul   $0xbf4b,%eax,%eax
  40147c:	89 44 24 d4          	mov    %eax,-0x2c(%rsp)
  401480:	8b 44 24 f4          	mov    -0xc(%rsp),%eax
  401484:	69 c0 57 fa 00 00    	imul   $0xfa57,%eax,%eax
  40148a:	89 44 24 f4          	mov    %eax,-0xc(%rsp)
  40148e:	8b 44 24 d0          	mov    -0x30(%rsp),%eax
  401492:	69 c0 a2 77 00 00    	imul   $0x77a2,%eax,%eax
  401498:	89 44 24 d0          	mov    %eax,-0x30(%rsp)
  40149c:	8b 44 24 d8          	mov    -0x28(%rsp),%eax
  4014a0:	69 c0 ab 99 00 00    	imul   $0x99ab,%eax,%eax
  4014a6:	89 44 24 d8          	mov    %eax,-0x28(%rsp)
  4014aa:	8b 44 24 f4          	mov    -0xc(%rsp),%eax
  4014ae:	69 c0 40 8e 00 00    	imul   $0x8e40,%eax,%eax
  4014b4:	89 44 24 f4          	mov    %eax,-0xc(%rsp)
  4014b8:	8b 44 24 e0          	mov    -0x20(%rsp),%eax
  4014bc:	69 c0 dc 92 00 00    	imul   $0x92dc,%eax,%eax
  4014c2:	89 44 24 e0          	mov    %eax,-0x20(%rsp)
  4014c6:	8b 44 24 e0          	mov    -0x20(%rsp),%eax
  4014ca:	69 c0 fd e0 00 00    	imul   $0xe0fd,%eax,%eax
  4014d0:	89 44 24 e0          	mov    %eax,-0x20(%rsp)
  4014d4:	8b 44 24 d0          	mov    -0x30(%rsp),%eax
  4014d8:	69 c0 d7 50 00 00    	imul   $0x50d7,%eax,%eax
  4014de:	89 44 24 d0          	mov    %eax,-0x30(%rsp)
  4014e2:	8b 44 24 dc          	mov    -0x24(%rsp),%eax
  4014e6:	69 c0 05 8f 00 00    	imul   $0x8f05,%eax,%eax
  4014ec:	89 44 24 dc          	mov    %eax,-0x24(%rsp)
  4014f0:	8b 44 24 e0          	mov    -0x20(%rsp),%eax
  4014f4:	69 c0 a2 aa 00 00    	imul   $0xaaa2,%eax,%eax
  4014fa:	89 44 24 e0          	mov    %eax,-0x20(%rsp)
  4014fe:	8b 44 24 d4          	mov    -0x2c(%rsp),%eax
  401502:	69 c0 23 b6 00 00    	imul   $0xb623,%eax,%eax
  401508:	89 44 24 d4          	mov    %eax,-0x2c(%rsp)
  40150c:	8b 44 24 e8          	mov    -0x18(%rsp),%eax
  401510:	69 c0 79 fd 00 00    	imul   $0xfd79,%eax,%eax
  401516:	89 44 24 e8          	mov    %eax,-0x18(%rsp)
  40151a:	8b 44 24 e4          	mov    -0x1c(%rsp),%eax
  40151e:	69 c0 d6 80 00 00    	imul   $0x80d6,%eax,%eax
  401524:	89 44 24 e4          	mov    %eax,-0x1c(%rsp)
  401528:	8b 44 24 e8          	mov    -0x18(%rsp),%eax
  40152c:	69 c0 fc 0f 00 00    	imul   $0xffc,%eax,%eax
  401532:	89 44 24 e8          	mov    %eax,-0x18(%rsp)
  401536:	8b 44 24 f4          	mov    -0xc(%rsp),%eax
  40153a:	69 c0 0e 4c 00 00    	imul   $0x4c0e,%eax,%eax
  401540:	89 44 24 f4          	mov    %eax,-0xc(%rsp)
  401544:	8b 44 24 dc          	mov    -0x24(%rsp),%eax
  401548:	69 c0 13 a1 00 00    	imul   $0xa113,%eax,%eax
  40154e:	89 44 24 dc          	mov    %eax,-0x24(%rsp)
  401552:	8b 44 24 e0          	mov    -0x20(%rsp),%eax
  401556:	69 c0 54 86 00 00    	imul   $0x8654,%eax,%eax
  40155c:	89 44 24 e0          	mov    %eax,-0x20(%rsp)
  401560:	8b 44 24 d0          	mov    -0x30(%rsp),%eax
  401564:	69 c0 e5 2a 00 00    	imul   $0x2ae5,%eax,%eax
  40156a:	89 44 24 d0          	mov    %eax,-0x30(%rsp)
  40156e:	8b 44 24 d0          	mov    -0x30(%rsp),%eax
  401572:	69 c0 87 db 00 00    	imul   $0xdb87,%eax,%eax
  401578:	89 44 24 d0          	mov    %eax,-0x30(%rsp)
  40157c:	8b 44 24 f4          	mov    -0xc(%rsp),%eax
  401580:	69 c0 9e 67 00 00    	imul   $0x679e,%eax,%eax
  401586:	89 44 24 f4          	mov    %eax,-0xc(%rsp)
  40158a:	8b 44 24 d4          	mov    -0x2c(%rsp),%eax
  40158e:	69 c0 d3 06 00 00    	imul   $0x6d3,%eax,%eax
  401594:	89 44 24 d4          	mov    %eax,-0x2c(%rsp)
  401598:	8b 44 24 e8          	mov    -0x18(%rsp),%eax
  40159c:	69 c0 bd 4f 00 00    	imul   $0x4fbd,%eax,%eax
  4015a2:	89 44 24 e8          	mov    %eax,-0x18(%rsp)
  4015a6:	8b 44 24 ec          	mov    -0x14(%rsp),%eax
  4015aa:	69 c0 5d ef 00 00    	imul   $0xef5d,%eax,%eax
  4015b0:	89 44 24 ec          	mov    %eax,-0x14(%rsp)
  4015b4:	8b 44 24 e4          	mov    -0x1c(%rsp),%eax
  4015b8:	69 c0 ba 1b 00 00    	imul   $0x1bba,%eax,%eax
  4015be:	89 44 24 e4          	mov    %eax,-0x1c(%rsp)
  4015c2:	8b 44 24 f4          	mov    -0xc(%rsp),%eax
  4015c6:	69 c0 ae f7 00 00    	imul   $0xf7ae,%eax,%eax
  4015cc:	89 44 24 f4          	mov    %eax,-0xc(%rsp)
  4015d0:	8b 44 24 f4          	mov    -0xc(%rsp),%eax
  4015d4:	69 c0 b5 77 00 00    	imul   $0x77b5,%eax,%eax
  4015da:	89 44 24 f4          	mov    %eax,-0xc(%rsp)
  4015de:	8b 44 24 ec          	mov    -0x14(%rsp),%eax
  4015e2:	69 c0 ec 6a 00 00    	imul   $0x6aec,%eax,%eax
  4015e8:	89 44 24 ec          	mov    %eax,-0x14(%rsp)
  4015ec:	8b 44 24 e0          	mov    -0x20(%rsp),%eax
  4015f0:	69 c0 0d 50 00 00    	imul   $0x500d,%eax,%eax
  4015f6:	89 44 24 e0          	mov    %eax,-0x20(%rsp)
  4015fa:	8b 44 24 e4          	mov    -0x1c(%rsp),%eax
  4015fe:	69 c0 fa 14 00 00    	imul   $0x14fa,%eax,%eax
  401604:	89 44 24 e4          	mov    %eax,-0x1c(%rsp)
  401608:	8b 44 24 f0          	mov    -0x10(%rsp),%eax
  40160c:	69 c0 4b 12 00 00    	imul   $0x124b,%eax,%eax
  401612:	89 44 24 f0          	mov    %eax,-0x10(%rsp)
  401616:	8b 44 24 e0          	mov    -0x20(%rsp),%eax
  40161a:	69 c0 c6 03 00 00    	imul   $0x3c6,%eax,%eax
  401620:	89 44 24 e0          	mov    %eax,-0x20(%rsp)
  401624:	8b 44 24 f4          	mov    -0xc(%rsp),%eax
  401628:	69 c0 62 6c 00 00    	imul   $0x6c62,%eax,%eax
  40162e:	89 44 24 f4          	mov    %eax,-0xc(%rsp)
  401632:	8b 44 24 ec          	mov    -0x14(%rsp),%eax
  401636:	69 c0 c8 4e 00 00    	imul   $0x4ec8,%eax,%eax
  40163c:	89 44 24 ec          	mov    %eax,-0x14(%rsp)
  401640:	8b 44 24 ec          	mov    -0x14(%rsp),%eax
  401644:	69 c0 11 88 00 00    	imul   $0x8811,%eax,%eax
  40164a:	89 44 24 ec          	mov    %eax,-0x14(%rsp)
  40164e:	8b 44 24 e0          	mov    -0x20(%rsp),%eax
  401652:	69 c0 d7 5b 00 00    	imul   $0x5bd7,%eax,%eax
  401658:	89 44 24 e0          	mov    %eax,-0x20(%rsp)
  40165c:	8b 44 24 f0          	mov    -0x10(%rsp),%eax
  401660:	69 c0 16 94 00 00    	imul   $0x9416,%eax,%eax
  401666:	89 44 24 f0          	mov    %eax,-0x10(%rsp)
  40166a:	8b 44 24 d8          	mov    -0x28(%rsp),%eax
  40166e:	69 c0 2b ea 00 00    	imul   $0xea2b,%eax,%eax
  401674:	89 44 24 d8          	mov    %eax,-0x28(%rsp)
  401678:	8b 44 24 e0          	mov    -0x20(%rsp),%eax
  40167c:	69 c0 7b 4a 00 00    	imul   $0x4a7b,%eax,%eax
  401682:	89 44 24 e0          	mov    %eax,-0x20(%rsp)
  401686:	8b 44 24 dc          	mov    -0x24(%rsp),%eax
  40168a:	69 c0 69 84 00 00    	imul   $0x8469,%eax,%eax
  401690:	89 44 24 dc          	mov    %eax,-0x24(%rsp)
  401694:	8b 44 24 d4          	mov    -0x2c(%rsp),%eax
  401698:	69 c0 eb 57 00 00    	imul   $0x57eb,%eax,%eax
  40169e:	89 44 24 d4          	mov    %eax,-0x2c(%rsp)
  4016a2:	8b 44 24 dc          	mov    -0x24(%rsp),%eax
  4016a6:	69 c0 92 2c 00 00    	imul   $0x2c92,%eax,%eax
  4016ac:	89 44 24 dc          	mov    %eax,-0x24(%rsp)
  4016b0:	8b 44 24 ec          	mov    -0x14(%rsp),%eax
  4016b4:	69 c0 e8 29 00 00    	imul   $0x29e8,%eax,%eax
  4016ba:	89 44 24 ec          	mov    %eax,-0x14(%rsp)
  4016be:	8b 44 24 f4          	mov    -0xc(%rsp),%eax
  4016c2:	69 c0 d0 44 00 00    	imul   $0x44d0,%eax,%eax
  4016c8:	89 44 24 f4          	mov    %eax,-0xc(%rsp)
  4016cc:	8b 44 24 e8          	mov    -0x18(%rsp),%eax
  4016d0:	69 c0 41 83 00 00    	imul   $0x8341,%eax,%eax
  4016d6:	89 44 24 e8          	mov    %eax,-0x18(%rsp)
  4016da:	8b 44 24 f0          	mov    -0x10(%rsp),%eax
  4016de:	69 c0 fe d9 00 00    	imul   $0xd9fe,%eax,%eax
  4016e4:	89 44 24 f0          	mov    %eax,-0x10(%rsp)
  4016e8:	8b 44 24 dc          	mov    -0x24(%rsp),%eax
  4016ec:	69 c0 d2 ba 00 00    	imul   $0xbad2,%eax,%eax
  4016f2:	89 44 24 dc          	mov    %eax,-0x24(%rsp)
  4016f6:	ba 00 00 00 00       	mov    $0x0,%edx
  4016fb:	b8 00 00 00 00       	mov    $0x0,%eax
  401700:	eb 0b                	jmp    40170d <scramble+0x46a>
  401702:	89 d1                	mov    %edx,%ecx
  401704:	8b 4c 8c d0          	mov    -0x30(%rsp,%rcx,4),%ecx
  401708:	01 c8                	add    %ecx,%eax
  40170a:	83 c2 01             	add    $0x1,%edx
  40170d:	83 fa 09             	cmp    $0x9,%edx
  401710:	76 f0                	jbe    401702 <scramble+0x45f>
  401712:	f3 c3                	repz retq 

0000000000401714 <getbuf>:
  401714:	48 83 ec 38          	sub    $0x38,%rsp
  401718:	48 89 e7             	mov    %rsp,%rdi
  40171b:	e8 5a 03 00 00       	callq  401a7a <Gets>
  401720:	b8 01 00 00 00       	mov    $0x1,%eax
  401725:	48 83 c4 38          	add    $0x38,%rsp
  401729:	c3                   	retq   

000000000040172a <touch1>:
  40172a:	48 83 ec 08          	sub    $0x8,%rsp
  40172e:	c7 05 c4 3d 20 00 01 	movl   $0x1,0x203dc4(%rip)        # 6054fc <vlevel>
  401735:	00 00 00 
  401738:	bf a3 30 40 00       	mov    $0x4030a3,%edi
  40173d:	e8 0e f5 ff ff       	callq  400c50 <puts@plt>
  401742:	bf 01 00 00 00       	mov    $0x1,%edi
  401747:	e8 1d 05 00 00       	callq  401c69 <validate>
  40174c:	bf 00 00 00 00       	mov    $0x0,%edi
  401751:	e8 9a f6 ff ff       	callq  400df0 <exit@plt>

0000000000401756 <touch2>:
  401756:	48 83 ec 08          	sub    $0x8,%rsp
  40175a:	89 fe                	mov    %edi,%esi
  40175c:	c7 05 96 3d 20 00 02 	movl   $0x2,0x203d96(%rip)        # 6054fc <vlevel>
  401763:	00 00 00 
  401766:	3b 3d 98 3d 20 00    	cmp    0x203d98(%rip),%edi        # 605504 <cookie>
  40176c:	75 1b                	jne    401789 <touch2+0x33>
  40176e:	bf c8 30 40 00       	mov    $0x4030c8,%edi
  401773:	b8 00 00 00 00       	mov    $0x0,%eax
  401778:	e8 03 f5 ff ff       	callq  400c80 <printf@plt>
  40177d:	bf 02 00 00 00       	mov    $0x2,%edi
  401782:	e8 e2 04 00 00       	callq  401c69 <validate>
  401787:	eb 19                	jmp    4017a2 <touch2+0x4c>
  401789:	bf f0 30 40 00       	mov    $0x4030f0,%edi
  40178e:	b8 00 00 00 00       	mov    $0x0,%eax
  401793:	e8 e8 f4 ff ff       	callq  400c80 <printf@plt>
  401798:	bf 02 00 00 00       	mov    $0x2,%edi
  40179d:	e8 79 05 00 00       	callq  401d1b <fail>
  4017a2:	bf 00 00 00 00       	mov    $0x0,%edi
  4017a7:	e8 44 f6 ff ff       	callq  400df0 <exit@plt>

00000000004017ac <hexmatch>:
  4017ac:	41 54                	push   %r12
  4017ae:	55                   	push   %rbp
  4017af:	53                   	push   %rbx
  4017b0:	48 83 ec 70          	sub    $0x70,%rsp
  4017b4:	41 89 fc             	mov    %edi,%r12d
  4017b7:	48 89 f5             	mov    %rsi,%rbp
  4017ba:	e8 91 f5 ff ff       	callq  400d50 <random@plt>
  4017bf:	48 89 c1             	mov    %rax,%rcx
  4017c2:	48 ba 0b d7 a3 70 3d 	movabs $0xa3d70a3d70a3d70b,%rdx
  4017c9:	0a d7 a3 
  4017cc:	48 f7 ea             	imul   %rdx
  4017cf:	48 8d 04 0a          	lea    (%rdx,%rcx,1),%rax
  4017d3:	48 c1 f8 06          	sar    $0x6,%rax
  4017d7:	48 89 ce             	mov    %rcx,%rsi
  4017da:	48 c1 fe 3f          	sar    $0x3f,%rsi
  4017de:	48 29 f0             	sub    %rsi,%rax
  4017e1:	48 8d 04 80          	lea    (%rax,%rax,4),%rax
  4017e5:	48 8d 04 80          	lea    (%rax,%rax,4),%rax
  4017e9:	48 c1 e0 02          	shl    $0x2,%rax
  4017ed:	48 29 c1             	sub    %rax,%rcx
  4017f0:	48 8d 1c 0c          	lea    (%rsp,%rcx,1),%rbx
  4017f4:	44 89 e2             	mov    %r12d,%edx
  4017f7:	be c0 30 40 00       	mov    $0x4030c0,%esi
  4017fc:	48 89 df             	mov    %rbx,%rdi
  4017ff:	b8 00 00 00 00       	mov    $0x0,%eax
  401804:	e8 d7 f5 ff ff       	callq  400de0 <sprintf@plt>
  401809:	ba 09 00 00 00       	mov    $0x9,%edx
  40180e:	48 89 de             	mov    %rbx,%rsi
  401811:	48 89 ef             	mov    %rbp,%rdi
  401814:	e8 17 f4 ff ff       	callq  400c30 <strncmp@plt>
  401819:	85 c0                	test   %eax,%eax
  40181b:	0f 94 c0             	sete   %al
  40181e:	0f b6 c0             	movzbl %al,%eax
  401821:	48 83 c4 70          	add    $0x70,%rsp
  401825:	5b                   	pop    %rbx
  401826:	5d                   	pop    %rbp
  401827:	41 5c                	pop    %r12
  401829:	c3                   	retq   

000000000040182a <touch3>:
  40182a:	53                   	push   %rbx
  40182b:	48 89 fb             	mov    %rdi,%rbx
  40182e:	c7 05 c4 3c 20 00 03 	movl   $0x3,0x203cc4(%rip)        # 6054fc <vlevel>
  401835:	00 00 00 
  401838:	48 89 fe             	mov    %rdi,%rsi
  40183b:	8b 3d c3 3c 20 00    	mov    0x203cc3(%rip),%edi        # 605504 <cookie>
  401841:	e8 66 ff ff ff       	callq  4017ac <hexmatch>
  401846:	85 c0                	test   %eax,%eax
  401848:	74 1e                	je     401868 <touch3+0x3e>
  40184a:	48 89 de             	mov    %rbx,%rsi
  40184d:	bf 18 31 40 00       	mov    $0x403118,%edi
  401852:	b8 00 00 00 00       	mov    $0x0,%eax
  401857:	e8 24 f4 ff ff       	callq  400c80 <printf@plt>
  40185c:	bf 03 00 00 00       	mov    $0x3,%edi
  401861:	e8 03 04 00 00       	callq  401c69 <validate>
  401866:	eb 1c                	jmp    401884 <touch3+0x5a>
  401868:	48 89 de             	mov    %rbx,%rsi
  40186b:	bf 40 31 40 00       	mov    $0x403140,%edi
  401870:	b8 00 00 00 00       	mov    $0x0,%eax
  401875:	e8 06 f4 ff ff       	callq  400c80 <printf@plt>
  40187a:	bf 03 00 00 00       	mov    $0x3,%edi
  40187f:	e8 97 04 00 00       	callq  401d1b <fail>
  401884:	bf 00 00 00 00       	mov    $0x0,%edi
  401889:	e8 62 f5 ff ff       	callq  400df0 <exit@plt>

000000000040188e <test>:
  40188e:	48 83 ec 08          	sub    $0x8,%rsp
  401892:	b8 00 00 00 00       	mov    $0x0,%eax
  401897:	e8 78 fe ff ff       	callq  401714 <getbuf>
  40189c:	89 c6                	mov    %eax,%esi
  40189e:	bf 68 31 40 00       	mov    $0x403168,%edi
  4018a3:	b8 00 00 00 00       	mov    $0x0,%eax
  4018a8:	e8 d3 f3 ff ff       	callq  400c80 <printf@plt>
  4018ad:	48 83 c4 08          	add    $0x8,%rsp
  4018b1:	c3                   	retq   

00000000004018b2 <start_farm>:
  4018b2:	b8 01 00 00 00       	mov    $0x1,%eax
  4018b7:	c3                   	retq   

00000000004018b8 <addval_182>:
  4018b8:	8d 87 90 58 90 c3    	lea    -0x3c6fa770(%rdi),%eax
  4018be:	c3                   	retq   

00000000004018bf <getval_440>:
  4018bf:	b8 48 89 c7 c3       	mov    $0xc3c78948,%eax
  4018c4:	c3                   	retq   

00000000004018c5 <setval_364>:
  4018c5:	c7 07 68 89 c7 90    	movl   $0x90c78968,(%rdi)
  4018cb:	c3                   	retq   

00000000004018cc <addval_188>:
  4018cc:	8d 87 48 89 c7 c3    	lea    -0x3c3876b8(%rdi),%eax
  4018d2:	c3                   	retq   

00000000004018d3 <setval_385>:
  4018d3:	c7 07 80 58 90 90    	movl   $0x90905880,(%rdi)
  4018d9:	c3                   	retq   

00000000004018da <setval_447>:
  4018da:	c7 07 6c 50 c3 7c    	movl   $0x7cc3506c,(%rdi)
  4018e0:	c3                   	retq   

00000000004018e1 <getval_215>:
  4018e1:	b8 c8 89 c7 90       	mov    $0x90c789c8,%eax
  4018e6:	c3                   	retq   

00000000004018e7 <getval_269>:
  4018e7:	b8 50 90 90 90       	mov    $0x90909050,%eax
  4018ec:	c3                   	retq   

00000000004018ed <mid_farm>:
  4018ed:	b8 01 00 00 00       	mov    $0x1,%eax
  4018f2:	c3                   	retq   

00000000004018f3 <add_xy>:
  4018f3:	48 8d 04 37          	lea    (%rdi,%rsi,1),%rax
  4018f7:	c3                   	retq   

00000000004018f8 <setval_319>:
  4018f8:	c7 07 48 8d e0 90    	movl   $0x90e08d48,(%rdi)
  4018fe:	c3                   	retq   

00000000004018ff <setval_187>:
  4018ff:	c7 07 30 89 ce c3    	movl   $0xc3ce8930,(%rdi)
  401905:	c3                   	retq   

0000000000401906 <getval_122>:
  401906:	b8 09 d1 90 c3       	mov    $0xc390d109,%eax
  40190b:	c3                   	retq   

000000000040190c <addval_434>:
  40190c:	8d 87 0d 89 ce 94    	lea    -0x6b3176f3(%rdi),%eax
  401912:	c3                   	retq   

0000000000401913 <addval_141>:
  401913:	8d 87 58 89 e0 90    	lea    -0x6f1f76a8(%rdi),%eax
  401919:	c3                   	retq   

000000000040191a <addval_273>:
  40191a:	8d 87 89 ce 91 90    	lea    -0x6f6e3177(%rdi),%eax
  401920:	c3                   	retq   

0000000000401921 <getval_424>:
  401921:	b8 89 ce 90 c7       	mov    $0xc790ce89,%eax
  401926:	c3                   	retq   

0000000000401927 <getval_402>:
  401927:	b8 08 89 e0 c3       	mov    $0xc3e08908,%eax
  40192c:	c3                   	retq   

000000000040192d <setval_318>:
  40192d:	c7 07 89 d1 08 db    	movl   $0xdb08d189,(%rdi)
  401933:	c3                   	retq   

0000000000401934 <getval_372>:
  401934:	b8 89 d1 38 d2       	mov    $0xd238d189,%eax
  401939:	c3                   	retq   

000000000040193a <getval_361>:
  40193a:	b8 89 d1 28 c9       	mov    $0xc928d189,%eax
  40193f:	c3                   	retq   

0000000000401940 <getval_389>:
  401940:	b8 48 89 e0 c2       	mov    $0xc2e08948,%eax
  401945:	c3                   	retq   

0000000000401946 <setval_374>:
  401946:	c7 07 89 ce a4 c9    	movl   $0xc9a4ce89,(%rdi)
  40194c:	c3                   	retq   

000000000040194d <addval_184>:
  40194d:	8d 87 89 c2 90 c3    	lea    -0x3c6f3d77(%rdi),%eax
  401953:	c3                   	retq   

0000000000401954 <addval_254>:
  401954:	8d 87 89 c2 30 c0    	lea    -0x3fcf3d77(%rdi),%eax
  40195a:	c3                   	retq   

000000000040195b <setval_284>:
  40195b:	c7 07 89 c2 c4 c9    	movl   $0xc9c4c289,(%rdi)
  401961:	c3                   	retq   

0000000000401962 <setval_448>:
  401962:	c7 07 48 89 e0 c3    	movl   $0xc3e08948,(%rdi)
  401968:	c3                   	retq   

0000000000401969 <addval_388>:
  401969:	8d 87 89 c2 08 d2    	lea    -0x2df73d77(%rdi),%eax
  40196f:	c3                   	retq   

0000000000401970 <getval_425>:
  401970:	b8 89 d1 94 c3       	mov    $0xc394d189,%eax
  401975:	c3                   	retq   

0000000000401976 <setval_213>:
  401976:	c7 07 88 c2 38 c9    	movl   $0xc938c288,(%rdi)
  40197c:	c3                   	retq   

000000000040197d <addval_395>:
  40197d:	8d 87 89 ce 94 d2    	lea    -0x2d6b3177(%rdi),%eax
  401983:	c3                   	retq   

0000000000401984 <getval_299>:
  401984:	b8 48 8b e0 90       	mov    $0x90e08b48,%eax
  401989:	c3                   	retq   

000000000040198a <setval_270>:
  40198a:	c7 07 89 d1 18 c0    	movl   $0xc018d189,(%rdi)
  401990:	c3                   	retq   

0000000000401991 <addval_109>:
  401991:	8d 87 89 d1 94 d2    	lea    -0x2d6b2e77(%rdi),%eax
  401997:	c3                   	retq   

0000000000401998 <setval_107>:
  401998:	c7 07 a9 c2 38 d2    	movl   $0xd238c2a9,(%rdi)
  40199e:	c3                   	retq   

000000000040199f <getval_256>:
  40199f:	b8 8d c2 90 c3       	mov    $0xc390c28d,%eax
  4019a4:	c3                   	retq   

00000000004019a5 <addval_130>:
  4019a5:	8d 87 89 ce c3 9a    	lea    -0x653c3177(%rdi),%eax
  4019ab:	c3                   	retq   

00000000004019ac <addval_157>:
  4019ac:	8d 87 a9 c2 08 c0    	lea    -0x3ff73d57(%rdi),%eax
  4019b2:	c3                   	retq   

00000000004019b3 <setval_417>:
  4019b3:	c7 07 48 89 e0 c3    	movl   $0xc3e08948,(%rdi)
  4019b9:	c3                   	retq   

00000000004019ba <addval_201>:
  4019ba:	8d 87 4d 89 d1 c7    	lea    -0x382e76b3(%rdi),%eax
  4019c0:	c3                   	retq   

00000000004019c1 <setval_168>:
  4019c1:	c7 07 8b ce 38 c0    	movl   $0xc038ce8b,(%rdi)
  4019c7:	c3                   	retq   

00000000004019c8 <getval_126>:
  4019c8:	b8 f4 68 89 e0       	mov    $0xe08968f4,%eax
  4019cd:	c3                   	retq   

00000000004019ce <end_farm>:
  4019ce:	b8 01 00 00 00       	mov    $0x1,%eax
  4019d3:	c3                   	retq   
  4019d4:	66 2e 0f 1f 84 00 00 	nopw   %cs:0x0(%rax,%rax,1)
  4019db:	00 00 00 
  4019de:	66 90                	xchg   %ax,%ax

00000000004019e0 <save_char>:
  4019e0:	8b 05 3e 47 20 00    	mov    0x20473e(%rip),%eax        # 606124 <gets_cnt>
  4019e6:	3d ff 03 00 00       	cmp    $0x3ff,%eax
  4019eb:	7f 49                	jg     401a36 <save_char+0x56>
  4019ed:	8d 14 40             	lea    (%rax,%rax,2),%edx
  4019f0:	89 f9                	mov    %edi,%ecx
  4019f2:	c0 e9 04             	shr    $0x4,%cl
  4019f5:	83 e1 0f             	and    $0xf,%ecx
  4019f8:	0f b6 b1 90 34 40 00 	movzbl 0x403490(%rcx),%esi
  4019ff:	48 63 ca             	movslq %edx,%rcx
  401a02:	40 88 b1 20 55 60 00 	mov    %sil,0x605520(%rcx)
  401a09:	8d 4a 01             	lea    0x1(%rdx),%ecx
  401a0c:	83 e7 0f             	and    $0xf,%edi
  401a0f:	0f b6 b7 90 34 40 00 	movzbl 0x403490(%rdi),%esi
  401a16:	48 63 c9             	movslq %ecx,%rcx
  401a19:	40 88 b1 20 55 60 00 	mov    %sil,0x605520(%rcx)
  401a20:	83 c2 02             	add    $0x2,%edx
  401a23:	48 63 d2             	movslq %edx,%rdx
  401a26:	c6 82 20 55 60 00 20 	movb   $0x20,0x605520(%rdx)
  401a2d:	83 c0 01             	add    $0x1,%eax
  401a30:	89 05 ee 46 20 00    	mov    %eax,0x2046ee(%rip)        # 606124 <gets_cnt>
  401a36:	f3 c3                	repz retq 

0000000000401a38 <save_term>:
  401a38:	8b 05 e6 46 20 00    	mov    0x2046e6(%rip),%eax        # 606124 <gets_cnt>
  401a3e:	8d 04 40             	lea    (%rax,%rax,2),%eax
  401a41:	48 98                	cltq   
  401a43:	c6 80 20 55 60 00 00 	movb   $0x0,0x605520(%rax)
  401a4a:	c3                   	retq   

0000000000401a4b <check_fail>:
  401a4b:	48 83 ec 08          	sub    $0x8,%rsp
  401a4f:	0f be 35 d2 46 20 00 	movsbl 0x2046d2(%rip),%esi        # 606128 <target_prefix>
  401a56:	b9 20 55 60 00       	mov    $0x605520,%ecx
  401a5b:	8b 15 97 3a 20 00    	mov    0x203a97(%rip),%edx        # 6054f8 <check_level>
  401a61:	bf 8b 31 40 00       	mov    $0x40318b,%edi
  401a66:	b8 00 00 00 00       	mov    $0x0,%eax
  401a6b:	e8 10 f2 ff ff       	callq  400c80 <printf@plt>
  401a70:	bf 01 00 00 00       	mov    $0x1,%edi
  401a75:	e8 76 f3 ff ff       	callq  400df0 <exit@plt>

0000000000401a7a <Gets>:
  401a7a:	41 54                	push   %r12
  401a7c:	55                   	push   %rbp
  401a7d:	53                   	push   %rbx
  401a7e:	49 89 fc             	mov    %rdi,%r12
  401a81:	c7 05 99 46 20 00 00 	movl   $0x0,0x204699(%rip)        # 606124 <gets_cnt>
  401a88:	00 00 00 
  401a8b:	48 89 fb             	mov    %rdi,%rbx
  401a8e:	eb 11                	jmp    401aa1 <Gets+0x27>
  401a90:	48 8d 6b 01          	lea    0x1(%rbx),%rbp
  401a94:	88 03                	mov    %al,(%rbx)
  401a96:	0f b6 f8             	movzbl %al,%edi
  401a99:	e8 42 ff ff ff       	callq  4019e0 <save_char>
  401a9e:	48 89 eb             	mov    %rbp,%rbx
  401aa1:	48 8b 3d 48 3a 20 00 	mov    0x203a48(%rip),%rdi        # 6054f0 <infile>
  401aa8:	e8 b3 f2 ff ff       	callq  400d60 <_IO_getc@plt>
  401aad:	83 f8 ff             	cmp    $0xffffffff,%eax
  401ab0:	74 05                	je     401ab7 <Gets+0x3d>
  401ab2:	83 f8 0a             	cmp    $0xa,%eax
  401ab5:	75 d9                	jne    401a90 <Gets+0x16>
  401ab7:	c6 03 00             	movb   $0x0,(%rbx)
  401aba:	b8 00 00 00 00       	mov    $0x0,%eax
  401abf:	e8 74 ff ff ff       	callq  401a38 <save_term>
  401ac4:	4c 89 e0             	mov    %r12,%rax
  401ac7:	5b                   	pop    %rbx
  401ac8:	5d                   	pop    %rbp
  401ac9:	41 5c                	pop    %r12
  401acb:	c3                   	retq   

0000000000401acc <notify_server>:
  401acc:	83 3d 35 3a 20 00 00 	cmpl   $0x0,0x203a35(%rip)        # 605508 <is_checker>
  401ad3:	0f 85 8e 01 00 00    	jne    401c67 <notify_server+0x19b>
  401ad9:	53                   	push   %rbx
  401ada:	48 81 ec 10 40 00 00 	sub    $0x4010,%rsp
  401ae1:	89 fb                	mov    %edi,%ebx
  401ae3:	8b 05 3b 46 20 00    	mov    0x20463b(%rip),%eax        # 606124 <gets_cnt>
  401ae9:	83 c0 64             	add    $0x64,%eax
  401aec:	3d 00 20 00 00       	cmp    $0x2000,%eax
  401af1:	7e 19                	jle    401b0c <notify_server+0x40>
  401af3:	bf c0 32 40 00       	mov    $0x4032c0,%edi
  401af8:	b8 00 00 00 00       	mov    $0x0,%eax
  401afd:	e8 7e f1 ff ff       	callq  400c80 <printf@plt>
  401b02:	bf 01 00 00 00       	mov    $0x1,%edi
  401b07:	e8 e4 f2 ff ff       	callq  400df0 <exit@plt>
  401b0c:	44 0f be 0d 14 46 20 	movsbl 0x204614(%rip),%r9d        # 606128 <target_prefix>
  401b13:	00 
  401b14:	83 3d 8d 39 20 00 00 	cmpl   $0x0,0x20398d(%rip)        # 6054a8 <notify>
  401b1b:	74 09                	je     401b26 <notify_server+0x5a>
  401b1d:	44 8b 05 dc 39 20 00 	mov    0x2039dc(%rip),%r8d        # 605500 <authkey>
  401b24:	eb 06                	jmp    401b2c <notify_server+0x60>
  401b26:	41 b8 ff ff ff ff    	mov    $0xffffffff,%r8d
  401b2c:	85 db                	test   %ebx,%ebx
  401b2e:	74 07                	je     401b37 <notify_server+0x6b>
  401b30:	b9 a1 31 40 00       	mov    $0x4031a1,%ecx
  401b35:	eb 05                	jmp    401b3c <notify_server+0x70>
  401b37:	b9 a6 31 40 00       	mov    $0x4031a6,%ecx
  401b3c:	48 c7 44 24 08 20 55 	movq   $0x605520,0x8(%rsp)
  401b43:	60 00 
  401b45:	89 34 24             	mov    %esi,(%rsp)
  401b48:	8b 15 1a 36 20 00    	mov    0x20361a(%rip),%edx        # 605168 <target_id>
  401b4e:	be ab 31 40 00       	mov    $0x4031ab,%esi
  401b53:	48 8d bc 24 10 20 00 	lea    0x2010(%rsp),%rdi
  401b5a:	00 
  401b5b:	b8 00 00 00 00       	mov    $0x0,%eax
  401b60:	e8 7b f2 ff ff       	callq  400de0 <sprintf@plt>
  401b65:	83 3d 3c 39 20 00 00 	cmpl   $0x0,0x20393c(%rip)        # 6054a8 <notify>
  401b6c:	74 78                	je     401be6 <notify_server+0x11a>
  401b6e:	85 db                	test   %ebx,%ebx
  401b70:	74 68                	je     401bda <notify_server+0x10e>
  401b72:	4c 8d 4c 24 10       	lea    0x10(%rsp),%r9
  401b77:	41 b8 00 00 00 00    	mov    $0x0,%r8d
  401b7d:	48 8d 8c 24 10 20 00 	lea    0x2010(%rsp),%rcx
  401b84:	00 
  401b85:	48 8b 15 e4 35 20 00 	mov    0x2035e4(%rip),%rdx        # 605170 <lab>
  401b8c:	48 8b 35 e5 35 20 00 	mov    0x2035e5(%rip),%rsi        # 605178 <course>
  401b93:	48 8b 3d c6 35 20 00 	mov    0x2035c6(%rip),%rdi        # 605160 <user_id>
  401b9a:	e8 94 0f 00 00       	callq  402b33 <driver_post>
  401b9f:	85 c0                	test   %eax,%eax
  401ba1:	79 1e                	jns    401bc1 <notify_server+0xf5>
  401ba3:	48 8d 74 24 10       	lea    0x10(%rsp),%rsi
  401ba8:	bf c7 31 40 00       	mov    $0x4031c7,%edi
  401bad:	b8 00 00 00 00       	mov    $0x0,%eax
  401bb2:	e8 c9 f0 ff ff       	callq  400c80 <printf@plt>
  401bb7:	bf 01 00 00 00       	mov    $0x1,%edi
  401bbc:	e8 2f f2 ff ff       	callq  400df0 <exit@plt>
  401bc1:	bf f0 32 40 00       	mov    $0x4032f0,%edi
  401bc6:	e8 85 f0 ff ff       	callq  400c50 <puts@plt>
  401bcb:	bf d3 31 40 00       	mov    $0x4031d3,%edi
  401bd0:	e8 7b f0 ff ff       	callq  400c50 <puts@plt>
  401bd5:	e9 85 00 00 00       	jmpq   401c5f <notify_server+0x193>
  401bda:	bf dd 31 40 00       	mov    $0x4031dd,%edi
  401bdf:	e8 6c f0 ff ff       	callq  400c50 <puts@plt>
  401be4:	eb 79                	jmp    401c5f <notify_server+0x193>
  401be6:	85 db                	test   %ebx,%ebx
  401be8:	74 08                	je     401bf2 <notify_server+0x126>
  401bea:	be a1 31 40 00       	mov    $0x4031a1,%esi
  401bef:	90                   	nop
  401bf0:	eb 05                	jmp    401bf7 <notify_server+0x12b>
  401bf2:	be a6 31 40 00       	mov    $0x4031a6,%esi
  401bf7:	bf 28 33 40 00       	mov    $0x403328,%edi
  401bfc:	b8 00 00 00 00       	mov    $0x0,%eax
  401c01:	e8 7a f0 ff ff       	callq  400c80 <printf@plt>
  401c06:	48 8b 35 53 35 20 00 	mov    0x203553(%rip),%rsi        # 605160 <user_id>
  401c0d:	bf e4 31 40 00       	mov    $0x4031e4,%edi
  401c12:	b8 00 00 00 00       	mov    $0x0,%eax
  401c17:	e8 64 f0 ff ff       	callq  400c80 <printf@plt>
  401c1c:	48 8b 35 55 35 20 00 	mov    0x203555(%rip),%rsi        # 605178 <course>
  401c23:	bf f1 31 40 00       	mov    $0x4031f1,%edi
  401c28:	b8 00 00 00 00       	mov    $0x0,%eax
  401c2d:	e8 4e f0 ff ff       	callq  400c80 <printf@plt>
  401c32:	48 8b 35 37 35 20 00 	mov    0x203537(%rip),%rsi        # 605170 <lab>
  401c39:	bf fd 31 40 00       	mov    $0x4031fd,%edi
  401c3e:	b8 00 00 00 00       	mov    $0x0,%eax
  401c43:	e8 38 f0 ff ff       	callq  400c80 <printf@plt>
  401c48:	48 8d b4 24 10 20 00 	lea    0x2010(%rsp),%rsi
  401c4f:	00 
  401c50:	bf 06 32 40 00       	mov    $0x403206,%edi
  401c55:	b8 00 00 00 00       	mov    $0x0,%eax
  401c5a:	e8 21 f0 ff ff       	callq  400c80 <printf@plt>
  401c5f:	48 81 c4 10 40 00 00 	add    $0x4010,%rsp
  401c66:	5b                   	pop    %rbx
  401c67:	f3 c3                	repz retq 

0000000000401c69 <validate>:
  401c69:	53                   	push   %rbx
  401c6a:	89 fb                	mov    %edi,%ebx
  401c6c:	83 3d 95 38 20 00 00 	cmpl   $0x0,0x203895(%rip)        # 605508 <is_checker>
  401c73:	74 60                	je     401cd5 <validate+0x6c>
  401c75:	39 3d 81 38 20 00    	cmp    %edi,0x203881(%rip)        # 6054fc <vlevel>
  401c7b:	74 14                	je     401c91 <validate+0x28>
  401c7d:	bf 12 32 40 00       	mov    $0x403212,%edi
  401c82:	e8 c9 ef ff ff       	callq  400c50 <puts@plt>
  401c87:	b8 00 00 00 00       	mov    $0x0,%eax
  401c8c:	e8 ba fd ff ff       	callq  401a4b <check_fail>
  401c91:	8b 35 61 38 20 00    	mov    0x203861(%rip),%esi        # 6054f8 <check_level>
  401c97:	39 fe                	cmp    %edi,%esi
  401c99:	74 1b                	je     401cb6 <validate+0x4d>
  401c9b:	89 fa                	mov    %edi,%edx
  401c9d:	bf 50 33 40 00       	mov    $0x403350,%edi
  401ca2:	b8 00 00 00 00       	mov    $0x0,%eax
  401ca7:	e8 d4 ef ff ff       	callq  400c80 <printf@plt>
  401cac:	b8 00 00 00 00       	mov    $0x0,%eax
  401cb1:	e8 95 fd ff ff       	callq  401a4b <check_fail>
  401cb6:	0f be 35 6b 44 20 00 	movsbl 0x20446b(%rip),%esi        # 606128 <target_prefix>
  401cbd:	b9 20 55 60 00       	mov    $0x605520,%ecx
  401cc2:	89 fa                	mov    %edi,%edx
  401cc4:	bf 30 32 40 00       	mov    $0x403230,%edi
  401cc9:	b8 00 00 00 00       	mov    $0x0,%eax
  401cce:	e8 ad ef ff ff       	callq  400c80 <printf@plt>
  401cd3:	eb 44                	jmp    401d19 <validate+0xb0>
  401cd5:	39 3d 21 38 20 00    	cmp    %edi,0x203821(%rip)        # 6054fc <vlevel>
  401cdb:	74 18                	je     401cf5 <validate+0x8c>
  401cdd:	bf 12 32 40 00       	mov    $0x403212,%edi
  401ce2:	e8 69 ef ff ff       	callq  400c50 <puts@plt>
  401ce7:	89 de                	mov    %ebx,%esi
  401ce9:	bf 00 00 00 00       	mov    $0x0,%edi
  401cee:	e8 d9 fd ff ff       	callq  401acc <notify_server>
  401cf3:	eb 24                	jmp    401d19 <validate+0xb0>
  401cf5:	0f be 15 2c 44 20 00 	movsbl 0x20442c(%rip),%edx        # 606128 <target_prefix>
  401cfc:	89 fe                	mov    %edi,%esi
  401cfe:	bf 78 33 40 00       	mov    $0x403378,%edi
  401d03:	b8 00 00 00 00       	mov    $0x0,%eax
  401d08:	e8 73 ef ff ff       	callq  400c80 <printf@plt>
  401d0d:	89 de                	mov    %ebx,%esi
  401d0f:	bf 01 00 00 00       	mov    $0x1,%edi
  401d14:	e8 b3 fd ff ff       	callq  401acc <notify_server>
  401d19:	5b                   	pop    %rbx
  401d1a:	c3                   	retq   

0000000000401d1b <fail>:
  401d1b:	48 83 ec 08          	sub    $0x8,%rsp
  401d1f:	83 3d e2 37 20 00 00 	cmpl   $0x0,0x2037e2(%rip)        # 605508 <is_checker>
  401d26:	74 0a                	je     401d32 <fail+0x17>
  401d28:	b8 00 00 00 00       	mov    $0x0,%eax
  401d2d:	e8 19 fd ff ff       	callq  401a4b <check_fail>
  401d32:	89 fe                	mov    %edi,%esi
  401d34:	bf 00 00 00 00       	mov    $0x0,%edi
  401d39:	e8 8e fd ff ff       	callq  401acc <notify_server>
  401d3e:	48 83 c4 08          	add    $0x8,%rsp
  401d42:	c3                   	retq   

0000000000401d43 <bushandler>:
  401d43:	48 83 ec 08          	sub    $0x8,%rsp
  401d47:	83 3d ba 37 20 00 00 	cmpl   $0x0,0x2037ba(%rip)        # 605508 <is_checker>
  401d4e:	74 14                	je     401d64 <bushandler+0x21>
  401d50:	bf 45 32 40 00       	mov    $0x403245,%edi
  401d55:	e8 f6 ee ff ff       	callq  400c50 <puts@plt>
  401d5a:	b8 00 00 00 00       	mov    $0x0,%eax
  401d5f:	e8 e7 fc ff ff       	callq  401a4b <check_fail>
  401d64:	bf b0 33 40 00       	mov    $0x4033b0,%edi
  401d69:	e8 e2 ee ff ff       	callq  400c50 <puts@plt>
  401d6e:	bf 4f 32 40 00       	mov    $0x40324f,%edi
  401d73:	e8 d8 ee ff ff       	callq  400c50 <puts@plt>
  401d78:	be 00 00 00 00       	mov    $0x0,%esi
  401d7d:	bf 00 00 00 00       	mov    $0x0,%edi
  401d82:	e8 45 fd ff ff       	callq  401acc <notify_server>
  401d87:	bf 01 00 00 00       	mov    $0x1,%edi
  401d8c:	e8 5f f0 ff ff       	callq  400df0 <exit@plt>

0000000000401d91 <seghandler>:
  401d91:	48 83 ec 08          	sub    $0x8,%rsp
  401d95:	83 3d 6c 37 20 00 00 	cmpl   $0x0,0x20376c(%rip)        # 605508 <is_checker>
  401d9c:	74 14                	je     401db2 <seghandler+0x21>
  401d9e:	bf 65 32 40 00       	mov    $0x403265,%edi
  401da3:	e8 a8 ee ff ff       	callq  400c50 <puts@plt>
  401da8:	b8 00 00 00 00       	mov    $0x0,%eax
  401dad:	e8 99 fc ff ff       	callq  401a4b <check_fail>
  401db2:	bf d0 33 40 00       	mov    $0x4033d0,%edi
  401db7:	e8 94 ee ff ff       	callq  400c50 <puts@plt>
  401dbc:	bf 4f 32 40 00       	mov    $0x40324f,%edi
  401dc1:	e8 8a ee ff ff       	callq  400c50 <puts@plt>
  401dc6:	be 00 00 00 00       	mov    $0x0,%esi
  401dcb:	bf 00 00 00 00       	mov    $0x0,%edi
  401dd0:	e8 f7 fc ff ff       	callq  401acc <notify_server>
  401dd5:	bf 01 00 00 00       	mov    $0x1,%edi
  401dda:	e8 11 f0 ff ff       	callq  400df0 <exit@plt>

0000000000401ddf <illegalhandler>:
  401ddf:	48 83 ec 08          	sub    $0x8,%rsp
  401de3:	83 3d 1e 37 20 00 00 	cmpl   $0x0,0x20371e(%rip)        # 605508 <is_checker>
  401dea:	74 14                	je     401e00 <illegalhandler+0x21>
  401dec:	bf 78 32 40 00       	mov    $0x403278,%edi
  401df1:	e8 5a ee ff ff       	callq  400c50 <puts@plt>
  401df6:	b8 00 00 00 00       	mov    $0x0,%eax
  401dfb:	e8 4b fc ff ff       	callq  401a4b <check_fail>
  401e00:	bf f8 33 40 00       	mov    $0x4033f8,%edi
  401e05:	e8 46 ee ff ff       	callq  400c50 <puts@plt>
  401e0a:	bf 4f 32 40 00       	mov    $0x40324f,%edi
  401e0f:	e8 3c ee ff ff       	callq  400c50 <puts@plt>
  401e14:	be 00 00 00 00       	mov    $0x0,%esi
  401e19:	bf 00 00 00 00       	mov    $0x0,%edi
  401e1e:	e8 a9 fc ff ff       	callq  401acc <notify_server>
  401e23:	bf 01 00 00 00       	mov    $0x1,%edi
  401e28:	e8 c3 ef ff ff       	callq  400df0 <exit@plt>

0000000000401e2d <sigalrmhandler>:
  401e2d:	48 83 ec 08          	sub    $0x8,%rsp
  401e31:	83 3d d0 36 20 00 00 	cmpl   $0x0,0x2036d0(%rip)        # 605508 <is_checker>
  401e38:	74 14                	je     401e4e <sigalrmhandler+0x21>
  401e3a:	bf 8c 32 40 00       	mov    $0x40328c,%edi
  401e3f:	e8 0c ee ff ff       	callq  400c50 <puts@plt>
  401e44:	b8 00 00 00 00       	mov    $0x0,%eax
  401e49:	e8 fd fb ff ff       	callq  401a4b <check_fail>
  401e4e:	be 05 00 00 00       	mov    $0x5,%esi
  401e53:	bf 28 34 40 00       	mov    $0x403428,%edi
  401e58:	b8 00 00 00 00       	mov    $0x0,%eax
  401e5d:	e8 1e ee ff ff       	callq  400c80 <printf@plt>
  401e62:	be 00 00 00 00       	mov    $0x0,%esi
  401e67:	bf 00 00 00 00       	mov    $0x0,%edi
  401e6c:	e8 5b fc ff ff       	callq  401acc <notify_server>
  401e71:	bf 01 00 00 00       	mov    $0x1,%edi
  401e76:	e8 75 ef ff ff       	callq  400df0 <exit@plt>

0000000000401e7b <launch>:
  401e7b:	55                   	push   %rbp
  401e7c:	48 89 e5             	mov    %rsp,%rbp
  401e7f:	48 89 fa             	mov    %rdi,%rdx
  401e82:	48 8d 47 1e          	lea    0x1e(%rdi),%rax
  401e86:	48 83 e0 f0          	and    $0xfffffffffffffff0,%rax
  401e8a:	48 29 c4             	sub    %rax,%rsp
  401e8d:	48 8d 7c 24 0f       	lea    0xf(%rsp),%rdi
  401e92:	48 83 e7 f0          	and    $0xfffffffffffffff0,%rdi
  401e96:	be f4 00 00 00       	mov    $0xf4,%esi
  401e9b:	e8 f0 ed ff ff       	callq  400c90 <memset@plt>
  401ea0:	48 8b 05 19 36 20 00 	mov    0x203619(%rip),%rax        # 6054c0 <stdin@@GLIBC_2.2.5>
  401ea7:	48 39 05 42 36 20 00 	cmp    %rax,0x203642(%rip)        # 6054f0 <infile>
  401eae:	75 0f                	jne    401ebf <launch+0x44>
  401eb0:	bf 94 32 40 00       	mov    $0x403294,%edi
  401eb5:	b8 00 00 00 00       	mov    $0x0,%eax
  401eba:	e8 c1 ed ff ff       	callq  400c80 <printf@plt>
  401ebf:	c7 05 33 36 20 00 00 	movl   $0x0,0x203633(%rip)        # 6054fc <vlevel>
  401ec6:	00 00 00 
  401ec9:	b8 00 00 00 00       	mov    $0x0,%eax
  401ece:	e8 bb f9 ff ff       	callq  40188e <test>
  401ed3:	83 3d 2e 36 20 00 00 	cmpl   $0x0,0x20362e(%rip)        # 605508 <is_checker>
  401eda:	74 14                	je     401ef0 <launch+0x75>
  401edc:	bf a1 32 40 00       	mov    $0x4032a1,%edi
  401ee1:	e8 6a ed ff ff       	callq  400c50 <puts@plt>
  401ee6:	b8 00 00 00 00       	mov    $0x0,%eax
  401eeb:	e8 5b fb ff ff       	callq  401a4b <check_fail>
  401ef0:	bf ac 32 40 00       	mov    $0x4032ac,%edi
  401ef5:	e8 56 ed ff ff       	callq  400c50 <puts@plt>
  401efa:	c9                   	leaveq 
  401efb:	c3                   	retq   

0000000000401efc <stable_launch>:
  401efc:	53                   	push   %rbx
  401efd:	48 89 3d e4 35 20 00 	mov    %rdi,0x2035e4(%rip)        # 6054e8 <global_offset>
  401f04:	41 b9 00 00 00 00    	mov    $0x0,%r9d
  401f0a:	41 b8 00 00 00 00    	mov    $0x0,%r8d
  401f10:	b9 32 01 00 00       	mov    $0x132,%ecx
  401f15:	ba 07 00 00 00       	mov    $0x7,%edx
  401f1a:	be 00 00 10 00       	mov    $0x100000,%esi
  401f1f:	bf 00 60 58 55       	mov    $0x55586000,%edi
  401f24:	e8 47 ed ff ff       	callq  400c70 <mmap@plt>
  401f29:	48 89 c3             	mov    %rax,%rbx
  401f2c:	48 3d 00 60 58 55    	cmp    $0x55586000,%rax
  401f32:	74 32                	je     401f66 <stable_launch+0x6a>
  401f34:	be 00 00 10 00       	mov    $0x100000,%esi
  401f39:	48 89 c7             	mov    %rax,%rdi
  401f3c:	e8 3f ee ff ff       	callq  400d80 <munmap@plt>
  401f41:	ba 00 60 58 55       	mov    $0x55586000,%edx
  401f46:	be 60 34 40 00       	mov    $0x403460,%esi
  401f4b:	48 8b 3d 7e 35 20 00 	mov    0x20357e(%rip),%rdi        # 6054d0 <stderr@@GLIBC_2.2.5>
  401f52:	b8 00 00 00 00       	mov    $0x0,%eax
  401f57:	e8 a4 ed ff ff       	callq  400d00 <fprintf@plt>
  401f5c:	bf 01 00 00 00       	mov    $0x1,%edi
  401f61:	e8 8a ee ff ff       	callq  400df0 <exit@plt>
  401f66:	48 8d 90 f8 ff 0f 00 	lea    0xffff8(%rax),%rdx
  401f6d:	48 89 15 bc 41 20 00 	mov    %rdx,0x2041bc(%rip)        # 606130 <stack_top>
  401f74:	48 89 e0             	mov    %rsp,%rax
  401f77:	48 89 d4             	mov    %rdx,%rsp
  401f7a:	48 89 c2             	mov    %rax,%rdx
  401f7d:	48 89 15 5c 35 20 00 	mov    %rdx,0x20355c(%rip)        # 6054e0 <global_save_stack>
  401f84:	48 8b 3d 5d 35 20 00 	mov    0x20355d(%rip),%rdi        # 6054e8 <global_offset>
  401f8b:	e8 eb fe ff ff       	callq  401e7b <launch>
  401f90:	48 8b 05 49 35 20 00 	mov    0x203549(%rip),%rax        # 6054e0 <global_save_stack>
  401f97:	48 89 c4             	mov    %rax,%rsp
  401f9a:	be 00 00 10 00       	mov    $0x100000,%esi
  401f9f:	48 89 df             	mov    %rbx,%rdi
  401fa2:	e8 d9 ed ff ff       	callq  400d80 <munmap@plt>
  401fa7:	5b                   	pop    %rbx
  401fa8:	c3                   	retq   
  401fa9:	0f 1f 80 00 00 00 00 	nopl   0x0(%rax)

0000000000401fb0 <rio_readinitb>:
  401fb0:	89 37                	mov    %esi,(%rdi)
  401fb2:	c7 47 04 00 00 00 00 	movl   $0x0,0x4(%rdi)
  401fb9:	48 8d 47 10          	lea    0x10(%rdi),%rax
  401fbd:	48 89 47 08          	mov    %rax,0x8(%rdi)
  401fc1:	c3                   	retq   

0000000000401fc2 <sigalrm_handler>:
  401fc2:	48 83 ec 08          	sub    $0x8,%rsp
  401fc6:	ba 00 00 00 00       	mov    $0x0,%edx
  401fcb:	be a0 34 40 00       	mov    $0x4034a0,%esi
  401fd0:	48 8b 3d f9 34 20 00 	mov    0x2034f9(%rip),%rdi        # 6054d0 <stderr@@GLIBC_2.2.5>
  401fd7:	b8 00 00 00 00       	mov    $0x0,%eax
  401fdc:	e8 1f ed ff ff       	callq  400d00 <fprintf@plt>
  401fe1:	bf 01 00 00 00       	mov    $0x1,%edi
  401fe6:	e8 05 ee ff ff       	callq  400df0 <exit@plt>

0000000000401feb <urlencode>:
  401feb:	41 54                	push   %r12
  401fed:	55                   	push   %rbp
  401fee:	53                   	push   %rbx
  401fef:	48 83 ec 10          	sub    $0x10,%rsp
  401ff3:	48 89 fb             	mov    %rdi,%rbx
  401ff6:	48 89 f5             	mov    %rsi,%rbp
  401ff9:	b8 00 00 00 00       	mov    $0x0,%eax
  401ffe:	48 c7 c1 ff ff ff ff 	mov    $0xffffffffffffffff,%rcx
  402005:	f2 ae                	repnz scas %es:(%rdi),%al
  402007:	48 f7 d1             	not    %rcx
  40200a:	8d 41 ff             	lea    -0x1(%rcx),%eax
  40200d:	e9 93 00 00 00       	jmpq   4020a5 <urlencode+0xba>
  402012:	0f b6 13             	movzbl (%rbx),%edx
  402015:	80 fa 2a             	cmp    $0x2a,%dl
  402018:	0f 94 c1             	sete   %cl
  40201b:	80 fa 2d             	cmp    $0x2d,%dl
  40201e:	0f 94 c0             	sete   %al
  402021:	08 c1                	or     %al,%cl
  402023:	75 1f                	jne    402044 <urlencode+0x59>
  402025:	80 fa 2e             	cmp    $0x2e,%dl
  402028:	74 1a                	je     402044 <urlencode+0x59>
  40202a:	80 fa 5f             	cmp    $0x5f,%dl
  40202d:	74 15                	je     402044 <urlencode+0x59>
  40202f:	8d 42 d0             	lea    -0x30(%rdx),%eax
  402032:	3c 09                	cmp    $0x9,%al
  402034:	76 0e                	jbe    402044 <urlencode+0x59>
  402036:	8d 42 bf             	lea    -0x41(%rdx),%eax
  402039:	3c 19                	cmp    $0x19,%al
  40203b:	76 07                	jbe    402044 <urlencode+0x59>
  40203d:	8d 42 9f             	lea    -0x61(%rdx),%eax
  402040:	3c 19                	cmp    $0x19,%al
  402042:	77 09                	ja     40204d <urlencode+0x62>
  402044:	88 55 00             	mov    %dl,0x0(%rbp)
  402047:	48 8d 6d 01          	lea    0x1(%rbp),%rbp
  40204b:	eb 51                	jmp    40209e <urlencode+0xb3>
  40204d:	80 fa 20             	cmp    $0x20,%dl
  402050:	75 0a                	jne    40205c <urlencode+0x71>
  402052:	c6 45 00 2b          	movb   $0x2b,0x0(%rbp)
  402056:	48 8d 6d 01          	lea    0x1(%rbp),%rbp
  40205a:	eb 42                	jmp    40209e <urlencode+0xb3>
  40205c:	8d 42 e0             	lea    -0x20(%rdx),%eax
  40205f:	3c 5f                	cmp    $0x5f,%al
  402061:	0f 96 c1             	setbe  %cl
  402064:	80 fa 09             	cmp    $0x9,%dl
  402067:	0f 94 c0             	sete   %al
  40206a:	08 c1                	or     %al,%cl
  40206c:	74 45                	je     4020b3 <urlencode+0xc8>
  40206e:	0f b6 d2             	movzbl %dl,%edx
  402071:	be 38 35 40 00       	mov    $0x403538,%esi
  402076:	48 89 e7             	mov    %rsp,%rdi
  402079:	b8 00 00 00 00       	mov    $0x0,%eax
  40207e:	e8 5d ed ff ff       	callq  400de0 <sprintf@plt>
  402083:	0f b6 04 24          	movzbl (%rsp),%eax
  402087:	88 45 00             	mov    %al,0x0(%rbp)
  40208a:	0f b6 44 24 01       	movzbl 0x1(%rsp),%eax
  40208f:	88 45 01             	mov    %al,0x1(%rbp)
  402092:	0f b6 44 24 02       	movzbl 0x2(%rsp),%eax
  402097:	88 45 02             	mov    %al,0x2(%rbp)
  40209a:	48 8d 6d 03          	lea    0x3(%rbp),%rbp
  40209e:	48 83 c3 01          	add    $0x1,%rbx
  4020a2:	44 89 e0             	mov    %r12d,%eax
  4020a5:	44 8d 60 ff          	lea    -0x1(%rax),%r12d
  4020a9:	85 c0                	test   %eax,%eax
  4020ab:	0f 85 61 ff ff ff    	jne    402012 <urlencode+0x27>
  4020b1:	eb 05                	jmp    4020b8 <urlencode+0xcd>
  4020b3:	b8 ff ff ff ff       	mov    $0xffffffff,%eax
  4020b8:	48 83 c4 10          	add    $0x10,%rsp
  4020bc:	5b                   	pop    %rbx
  4020bd:	5d                   	pop    %rbp
  4020be:	41 5c                	pop    %r12
  4020c0:	c3                   	retq   

00000000004020c1 <rio_writen>:
  4020c1:	41 55                	push   %r13
  4020c3:	41 54                	push   %r12
  4020c5:	55                   	push   %rbp
  4020c6:	53                   	push   %rbx
  4020c7:	48 83 ec 08          	sub    $0x8,%rsp
  4020cb:	41 89 fc             	mov    %edi,%r12d
  4020ce:	48 89 f5             	mov    %rsi,%rbp
  4020d1:	49 89 d5             	mov    %rdx,%r13
  4020d4:	48 89 d3             	mov    %rdx,%rbx
  4020d7:	eb 28                	jmp    402101 <rio_writen+0x40>
  4020d9:	48 89 da             	mov    %rbx,%rdx
  4020dc:	48 89 ee             	mov    %rbp,%rsi
  4020df:	44 89 e7             	mov    %r12d,%edi
  4020e2:	e8 79 eb ff ff       	callq  400c60 <write@plt>
  4020e7:	48 85 c0             	test   %rax,%rax
  4020ea:	7f 0f                	jg     4020fb <rio_writen+0x3a>
  4020ec:	e8 1f eb ff ff       	callq  400c10 <__errno_location@plt>
  4020f1:	83 38 04             	cmpl   $0x4,(%rax)
  4020f4:	75 15                	jne    40210b <rio_writen+0x4a>
  4020f6:	b8 00 00 00 00       	mov    $0x0,%eax
  4020fb:	48 29 c3             	sub    %rax,%rbx
  4020fe:	48 01 c5             	add    %rax,%rbp
  402101:	48 85 db             	test   %rbx,%rbx
  402104:	75 d3                	jne    4020d9 <rio_writen+0x18>
  402106:	4c 89 e8             	mov    %r13,%rax
  402109:	eb 07                	jmp    402112 <rio_writen+0x51>
  40210b:	48 c7 c0 ff ff ff ff 	mov    $0xffffffffffffffff,%rax
  402112:	48 83 c4 08          	add    $0x8,%rsp
  402116:	5b                   	pop    %rbx
  402117:	5d                   	pop    %rbp
  402118:	41 5c                	pop    %r12
  40211a:	41 5d                	pop    %r13
  40211c:	c3                   	retq   

000000000040211d <rio_read>:
  40211d:	41 56                	push   %r14
  40211f:	41 55                	push   %r13
  402121:	41 54                	push   %r12
  402123:	55                   	push   %rbp
  402124:	53                   	push   %rbx
  402125:	48 89 fb             	mov    %rdi,%rbx
  402128:	49 89 f6             	mov    %rsi,%r14
  40212b:	49 89 d5             	mov    %rdx,%r13
  40212e:	4c 8d 67 10          	lea    0x10(%rdi),%r12
  402132:	eb 2a                	jmp    40215e <rio_read+0x41>
  402134:	ba 00 20 00 00       	mov    $0x2000,%edx
  402139:	4c 89 e6             	mov    %r12,%rsi
  40213c:	8b 3b                	mov    (%rbx),%edi
  40213e:	e8 7d eb ff ff       	callq  400cc0 <read@plt>
  402143:	89 43 04             	mov    %eax,0x4(%rbx)
  402146:	85 c0                	test   %eax,%eax
  402148:	79 0c                	jns    402156 <rio_read+0x39>
  40214a:	e8 c1 ea ff ff       	callq  400c10 <__errno_location@plt>
  40214f:	83 38 04             	cmpl   $0x4,(%rax)
  402152:	74 0a                	je     40215e <rio_read+0x41>
  402154:	eb 37                	jmp    40218d <rio_read+0x70>
  402156:	85 c0                	test   %eax,%eax
  402158:	74 3c                	je     402196 <rio_read+0x79>
  40215a:	4c 89 63 08          	mov    %r12,0x8(%rbx)
  40215e:	8b 6b 04             	mov    0x4(%rbx),%ebp
  402161:	85 ed                	test   %ebp,%ebp
  402163:	7e cf                	jle    402134 <rio_read+0x17>
  402165:	89 e8                	mov    %ebp,%eax
  402167:	4c 39 e8             	cmp    %r13,%rax
  40216a:	72 03                	jb     40216f <rio_read+0x52>
  40216c:	44 89 ed             	mov    %r13d,%ebp
  40216f:	4c 63 e5             	movslq %ebp,%r12
  402172:	48 8b 73 08          	mov    0x8(%rbx),%rsi
  402176:	4c 89 e2             	mov    %r12,%rdx
  402179:	4c 89 f7             	mov    %r14,%rdi
  40217c:	e8 af eb ff ff       	callq  400d30 <memcpy@plt>
  402181:	4c 01 63 08          	add    %r12,0x8(%rbx)
  402185:	29 6b 04             	sub    %ebp,0x4(%rbx)
  402188:	4c 89 e0             	mov    %r12,%rax
  40218b:	eb 0e                	jmp    40219b <rio_read+0x7e>
  40218d:	48 c7 c0 ff ff ff ff 	mov    $0xffffffffffffffff,%rax
  402194:	eb 05                	jmp    40219b <rio_read+0x7e>
  402196:	b8 00 00 00 00       	mov    $0x0,%eax
  40219b:	5b                   	pop    %rbx
  40219c:	5d                   	pop    %rbp
  40219d:	41 5c                	pop    %r12
  40219f:	41 5d                	pop    %r13
  4021a1:	41 5e                	pop    %r14
  4021a3:	c3                   	retq   

00000000004021a4 <rio_readlineb>:
  4021a4:	41 55                	push   %r13
  4021a6:	41 54                	push   %r12
  4021a8:	55                   	push   %rbp
  4021a9:	53                   	push   %rbx
  4021aa:	48 83 ec 18          	sub    $0x18,%rsp
  4021ae:	49 89 fd             	mov    %rdi,%r13
  4021b1:	48 89 f5             	mov    %rsi,%rbp
  4021b4:	49 89 d4             	mov    %rdx,%r12
  4021b7:	bb 01 00 00 00       	mov    $0x1,%ebx
  4021bc:	eb 3d                	jmp    4021fb <rio_readlineb+0x57>
  4021be:	ba 01 00 00 00       	mov    $0x1,%edx
  4021c3:	48 8d 74 24 0f       	lea    0xf(%rsp),%rsi
  4021c8:	4c 89 ef             	mov    %r13,%rdi
  4021cb:	e8 4d ff ff ff       	callq  40211d <rio_read>
  4021d0:	83 f8 01             	cmp    $0x1,%eax
  4021d3:	75 12                	jne    4021e7 <rio_readlineb+0x43>
  4021d5:	48 8d 55 01          	lea    0x1(%rbp),%rdx
  4021d9:	0f b6 44 24 0f       	movzbl 0xf(%rsp),%eax
  4021de:	88 45 00             	mov    %al,0x0(%rbp)
  4021e1:	3c 0a                	cmp    $0xa,%al
  4021e3:	75 0f                	jne    4021f4 <rio_readlineb+0x50>
  4021e5:	eb 1b                	jmp    402202 <rio_readlineb+0x5e>
  4021e7:	85 c0                	test   %eax,%eax
  4021e9:	75 23                	jne    40220e <rio_readlineb+0x6a>
  4021eb:	48 83 fb 01          	cmp    $0x1,%rbx
  4021ef:	90                   	nop
  4021f0:	75 13                	jne    402205 <rio_readlineb+0x61>
  4021f2:	eb 23                	jmp    402217 <rio_readlineb+0x73>
  4021f4:	48 83 c3 01          	add    $0x1,%rbx
  4021f8:	48 89 d5             	mov    %rdx,%rbp
  4021fb:	4c 39 e3             	cmp    %r12,%rbx
  4021fe:	72 be                	jb     4021be <rio_readlineb+0x1a>
  402200:	eb 03                	jmp    402205 <rio_readlineb+0x61>
  402202:	48 89 d5             	mov    %rdx,%rbp
  402205:	c6 45 00 00          	movb   $0x0,0x0(%rbp)
  402209:	48 89 d8             	mov    %rbx,%rax
  40220c:	eb 0e                	jmp    40221c <rio_readlineb+0x78>
  40220e:	48 c7 c0 ff ff ff ff 	mov    $0xffffffffffffffff,%rax
  402215:	eb 05                	jmp    40221c <rio_readlineb+0x78>
  402217:	b8 00 00 00 00       	mov    $0x0,%eax
  40221c:	48 83 c4 18          	add    $0x18,%rsp
  402220:	5b                   	pop    %rbx
  402221:	5d                   	pop    %rbp
  402222:	41 5c                	pop    %r12
  402224:	41 5d                	pop    %r13
  402226:	c3                   	retq   

0000000000402227 <submitr>:
  402227:	41 57                	push   %r15
  402229:	41 56                	push   %r14
  40222b:	41 55                	push   %r13
  40222d:	41 54                	push   %r12
  40222f:	55                   	push   %rbp
  402230:	53                   	push   %rbx
  402231:	48 81 ec 48 a0 00 00 	sub    $0xa048,%rsp
  402238:	49 89 fc             	mov    %rdi,%r12
  40223b:	89 74 24 04          	mov    %esi,0x4(%rsp)
  40223f:	49 89 d7             	mov    %rdx,%r15
  402242:	49 89 ce             	mov    %rcx,%r14
  402245:	4c 89 44 24 08       	mov    %r8,0x8(%rsp)
  40224a:	4d 89 cd             	mov    %r9,%r13
  40224d:	48 8b 9c 24 80 a0 00 	mov    0xa080(%rsp),%rbx
  402254:	00 
  402255:	c7 84 24 1c 20 00 00 	movl   $0x0,0x201c(%rsp)
  40225c:	00 00 00 00 
  402260:	ba 00 00 00 00       	mov    $0x0,%edx
  402265:	be 01 00 00 00       	mov    $0x1,%esi
  40226a:	bf 02 00 00 00       	mov    $0x2,%edi
  40226f:	e8 9c eb ff ff       	callq  400e10 <socket@plt>
  402274:	89 c5                	mov    %eax,%ebp
  402276:	85 c0                	test   %eax,%eax
  402278:	79 4e                	jns    4022c8 <submitr+0xa1>
  40227a:	48 b8 45 72 72 6f 72 	movabs $0x43203a726f727245,%rax
  402281:	3a 20 43 
  402284:	48 89 03             	mov    %rax,(%rbx)
  402287:	48 b8 6c 69 65 6e 74 	movabs $0x6e7520746e65696c,%rax
  40228e:	20 75 6e 
  402291:	48 89 43 08          	mov    %rax,0x8(%rbx)
  402295:	48 b8 61 62 6c 65 20 	movabs $0x206f7420656c6261,%rax
  40229c:	74 6f 20 
  40229f:	48 89 43 10          	mov    %rax,0x10(%rbx)
  4022a3:	48 b8 63 72 65 61 74 	movabs $0x7320657461657263,%rax
  4022aa:	65 20 73 
  4022ad:	48 89 43 18          	mov    %rax,0x18(%rbx)
  4022b1:	c7 43 20 6f 63 6b 65 	movl   $0x656b636f,0x20(%rbx)
  4022b8:	66 c7 43 24 74 00    	movw   $0x74,0x24(%rbx)
  4022be:	b8 ff ff ff ff       	mov    $0xffffffff,%eax
  4022c3:	e9 68 06 00 00       	jmpq   402930 <submitr+0x709>
  4022c8:	4c 89 e7             	mov    %r12,%rdi
  4022cb:	e8 20 ea ff ff       	callq  400cf0 <gethostbyname@plt>
  4022d0:	48 85 c0             	test   %rax,%rax
  4022d3:	75 67                	jne    40233c <submitr+0x115>
  4022d5:	48 b8 45 72 72 6f 72 	movabs $0x44203a726f727245,%rax
  4022dc:	3a 20 44 
  4022df:	48 89 03             	mov    %rax,(%rbx)
  4022e2:	48 b8 4e 53 20 69 73 	movabs $0x6e7520736920534e,%rax
  4022e9:	20 75 6e 
  4022ec:	48 89 43 08          	mov    %rax,0x8(%rbx)
  4022f0:	48 b8 61 62 6c 65 20 	movabs $0x206f7420656c6261,%rax
  4022f7:	74 6f 20 
  4022fa:	48 89 43 10          	mov    %rax,0x10(%rbx)
  4022fe:	48 b8 72 65 73 6f 6c 	movabs $0x2065766c6f736572,%rax
  402305:	76 65 20 
  402308:	48 89 43 18          	mov    %rax,0x18(%rbx)
  40230c:	48 b8 73 65 72 76 65 	movabs $0x6120726576726573,%rax
  402313:	72 20 61 
  402316:	48 89 43 20          	mov    %rax,0x20(%rbx)
  40231a:	c7 43 28 64 64 72 65 	movl   $0x65726464,0x28(%rbx)
  402321:	66 c7 43 2c 73 73    	movw   $0x7373,0x2c(%rbx)
  402327:	c6 43 2e 00          	movb   $0x0,0x2e(%rbx)
  40232b:	89 ef                	mov    %ebp,%edi
  40232d:	e8 7e e9 ff ff       	callq  400cb0 <close@plt>
  402332:	b8 ff ff ff ff       	mov    $0xffffffff,%eax
  402337:	e9 f4 05 00 00       	jmpq   402930 <submitr+0x709>
  40233c:	48 c7 84 24 30 a0 00 	movq   $0x0,0xa030(%rsp)
  402343:	00 00 00 00 00 
  402348:	48 c7 84 24 38 a0 00 	movq   $0x0,0xa038(%rsp)
  40234f:	00 00 00 00 00 
  402354:	66 c7 84 24 30 a0 00 	movw   $0x2,0xa030(%rsp)
  40235b:	00 02 00 
  40235e:	48 8b 48 18          	mov    0x18(%rax),%rcx
  402362:	48 63 50 14          	movslq 0x14(%rax),%rdx
  402366:	48 8d b4 24 34 a0 00 	lea    0xa034(%rsp),%rsi
  40236d:	00 
  40236e:	48 8b 39             	mov    (%rcx),%rdi
  402371:	e8 1a ea ff ff       	callq  400d90 <bcopy@plt>
  402376:	0f b7 44 24 04       	movzwl 0x4(%rsp),%eax
  40237b:	66 c1 c8 08          	ror    $0x8,%ax
  40237f:	66 89 84 24 32 a0 00 	mov    %ax,0xa032(%rsp)
  402386:	00 
  402387:	ba 10 00 00 00       	mov    $0x10,%edx
  40238c:	48 8d b4 24 30 a0 00 	lea    0xa030(%rsp),%rsi
  402393:	00 
  402394:	89 ef                	mov    %ebp,%edi
  402396:	e8 65 ea ff ff       	callq  400e00 <connect@plt>
  40239b:	85 c0                	test   %eax,%eax
  40239d:	79 59                	jns    4023f8 <submitr+0x1d1>
  40239f:	48 b8 45 72 72 6f 72 	movabs $0x55203a726f727245,%rax
  4023a6:	3a 20 55 
  4023a9:	48 89 03             	mov    %rax,(%rbx)
  4023ac:	48 b8 6e 61 62 6c 65 	movabs $0x6f7420656c62616e,%rax
  4023b3:	20 74 6f 
  4023b6:	48 89 43 08          	mov    %rax,0x8(%rbx)
  4023ba:	48 b8 20 63 6f 6e 6e 	movabs $0x7463656e6e6f6320,%rax
  4023c1:	65 63 74 
  4023c4:	48 89 43 10          	mov    %rax,0x10(%rbx)
  4023c8:	48 b8 20 74 6f 20 74 	movabs $0x20656874206f7420,%rax
  4023cf:	68 65 20 
  4023d2:	48 89 43 18          	mov    %rax,0x18(%rbx)
  4023d6:	c7 43 20 73 65 72 76 	movl   $0x76726573,0x20(%rbx)
  4023dd:	66 c7 43 24 65 72    	movw   $0x7265,0x24(%rbx)
  4023e3:	c6 43 26 00          	movb   $0x0,0x26(%rbx)
  4023e7:	89 ef                	mov    %ebp,%edi
  4023e9:	e8 c2 e8 ff ff       	callq  400cb0 <close@plt>
  4023ee:	b8 ff ff ff ff       	mov    $0xffffffff,%eax
  4023f3:	e9 38 05 00 00       	jmpq   402930 <submitr+0x709>
  4023f8:	48 c7 c2 ff ff ff ff 	mov    $0xffffffffffffffff,%rdx
  4023ff:	4c 89 ef             	mov    %r13,%rdi
  402402:	b8 00 00 00 00       	mov    $0x0,%eax
  402407:	48 89 d1             	mov    %rdx,%rcx
  40240a:	f2 ae                	repnz scas %es:(%rdi),%al
  40240c:	48 f7 d1             	not    %rcx
  40240f:	48 89 ce             	mov    %rcx,%rsi
  402412:	4c 89 ff             	mov    %r15,%rdi
  402415:	48 89 d1             	mov    %rdx,%rcx
  402418:	f2 ae                	repnz scas %es:(%rdi),%al
  40241a:	48 f7 d1             	not    %rcx
  40241d:	49 89 c8             	mov    %rcx,%r8
  402420:	4c 89 f7             	mov    %r14,%rdi
  402423:	48 89 d1             	mov    %rdx,%rcx
  402426:	f2 ae                	repnz scas %es:(%rdi),%al
  402428:	49 29 c8             	sub    %rcx,%r8
  40242b:	48 8b 7c 24 08       	mov    0x8(%rsp),%rdi
  402430:	48 89 d1             	mov    %rdx,%rcx
  402433:	f2 ae                	repnz scas %es:(%rdi),%al
  402435:	49 29 c8             	sub    %rcx,%r8
  402438:	48 8d 44 76 fd       	lea    -0x3(%rsi,%rsi,2),%rax
  40243d:	49 8d 44 00 7b       	lea    0x7b(%r8,%rax,1),%rax
  402442:	48 3d 00 20 00 00    	cmp    $0x2000,%rax
  402448:	76 72                	jbe    4024bc <submitr+0x295>
  40244a:	48 b8 45 72 72 6f 72 	movabs $0x52203a726f727245,%rax
  402451:	3a 20 52 
  402454:	48 89 03             	mov    %rax,(%rbx)
  402457:	48 b8 65 73 75 6c 74 	movabs $0x747320746c757365,%rax
  40245e:	20 73 74 
  402461:	48 89 43 08          	mov    %rax,0x8(%rbx)
  402465:	48 b8 72 69 6e 67 20 	movabs $0x6f6f7420676e6972,%rax
  40246c:	74 6f 6f 
  40246f:	48 89 43 10          	mov    %rax,0x10(%rbx)
  402473:	48 b8 20 6c 61 72 67 	movabs $0x202e656772616c20,%rax
  40247a:	65 2e 20 
  40247d:	48 89 43 18          	mov    %rax,0x18(%rbx)
  402481:	48 b8 49 6e 63 72 65 	movabs $0x6573616572636e49,%rax
  402488:	61 73 65 
  40248b:	48 89 43 20          	mov    %rax,0x20(%rbx)
  40248f:	48 b8 20 53 55 42 4d 	movabs $0x5254494d42555320,%rax
  402496:	49 54 52 
  402499:	48 89 43 28          	mov    %rax,0x28(%rbx)
  40249d:	48 b8 5f 4d 41 58 42 	movabs $0x46554258414d5f,%rax
  4024a4:	55 46 00 
  4024a7:	48 89 43 30          	mov    %rax,0x30(%rbx)
  4024ab:	89 ef                	mov    %ebp,%edi
  4024ad:	e8 fe e7 ff ff       	callq  400cb0 <close@plt>
  4024b2:	b8 ff ff ff ff       	mov    $0xffffffff,%eax
  4024b7:	e9 74 04 00 00       	jmpq   402930 <submitr+0x709>
  4024bc:	48 8d b4 24 20 40 00 	lea    0x4020(%rsp),%rsi
  4024c3:	00 
  4024c4:	b9 00 04 00 00       	mov    $0x400,%ecx
  4024c9:	b8 00 00 00 00       	mov    $0x0,%eax
  4024ce:	48 89 f7             	mov    %rsi,%rdi
  4024d1:	f3 48 ab             	rep stos %rax,%es:(%rdi)
  4024d4:	4c 89 ef             	mov    %r13,%rdi
  4024d7:	e8 0f fb ff ff       	callq  401feb <urlencode>
  4024dc:	85 c0                	test   %eax,%eax
  4024de:	0f 89 8a 00 00 00    	jns    40256e <submitr+0x347>
  4024e4:	48 b8 45 72 72 6f 72 	movabs $0x52203a726f727245,%rax
  4024eb:	3a 20 52 
  4024ee:	48 89 03             	mov    %rax,(%rbx)
  4024f1:	48 b8 65 73 75 6c 74 	movabs $0x747320746c757365,%rax
  4024f8:	20 73 74 
  4024fb:	48 89 43 08          	mov    %rax,0x8(%rbx)
  4024ff:	48 b8 72 69 6e 67 20 	movabs $0x6e6f6320676e6972,%rax
  402506:	63 6f 6e 
  402509:	48 89 43 10          	mov    %rax,0x10(%rbx)
  40250d:	48 b8 74 61 69 6e 73 	movabs $0x6e6120736e696174,%rax
  402514:	20 61 6e 
  402517:	48 89 43 18          	mov    %rax,0x18(%rbx)
  40251b:	48 b8 20 69 6c 6c 65 	movabs $0x6c6167656c6c6920,%rax
  402522:	67 61 6c 
  402525:	48 89 43 20          	mov    %rax,0x20(%rbx)
  402529:	48 b8 20 6f 72 20 75 	movabs $0x72706e7520726f20,%rax
  402530:	6e 70 72 
  402533:	48 89 43 28          	mov    %rax,0x28(%rbx)
  402537:	48 b8 69 6e 74 61 62 	movabs $0x20656c6261746e69,%rax
  40253e:	6c 65 20 
  402541:	48 89 43 30          	mov    %rax,0x30(%rbx)
  402545:	48 b8 63 68 61 72 61 	movabs $0x6574636172616863,%rax
  40254c:	63 74 65 
  40254f:	48 89 43 38          	mov    %rax,0x38(%rbx)
  402553:	66 c7 43 40 72 2e    	movw   $0x2e72,0x40(%rbx)
  402559:	c6 43 42 00          	movb   $0x0,0x42(%rbx)
  40255d:	89 ef                	mov    %ebp,%edi
  40255f:	e8 4c e7 ff ff       	callq  400cb0 <close@plt>
  402564:	b8 ff ff ff ff       	mov    $0xffffffff,%eax
  402569:	e9 c2 03 00 00       	jmpq   402930 <submitr+0x709>
  40256e:	4d 89 e1             	mov    %r12,%r9
  402571:	4c 8d 84 24 20 40 00 	lea    0x4020(%rsp),%r8
  402578:	00 
  402579:	4c 89 f9             	mov    %r15,%rcx
  40257c:	4c 89 f2             	mov    %r14,%rdx
  40257f:	be c8 34 40 00       	mov    $0x4034c8,%esi
  402584:	48 8d bc 24 20 60 00 	lea    0x6020(%rsp),%rdi
  40258b:	00 
  40258c:	b8 00 00 00 00       	mov    $0x0,%eax
  402591:	e8 4a e8 ff ff       	callq  400de0 <sprintf@plt>
  402596:	48 8d bc 24 20 60 00 	lea    0x6020(%rsp),%rdi
  40259d:	00 
  40259e:	b8 00 00 00 00       	mov    $0x0,%eax
  4025a3:	48 c7 c1 ff ff ff ff 	mov    $0xffffffffffffffff,%rcx
  4025aa:	f2 ae                	repnz scas %es:(%rdi),%al
  4025ac:	48 f7 d1             	not    %rcx
  4025af:	48 8d 51 ff          	lea    -0x1(%rcx),%rdx
  4025b3:	48 8d b4 24 20 60 00 	lea    0x6020(%rsp),%rsi
  4025ba:	00 
  4025bb:	89 ef                	mov    %ebp,%edi
  4025bd:	e8 ff fa ff ff       	callq  4020c1 <rio_writen>
  4025c2:	48 85 c0             	test   %rax,%rax
  4025c5:	79 6e                	jns    402635 <submitr+0x40e>
  4025c7:	48 b8 45 72 72 6f 72 	movabs $0x43203a726f727245,%rax
  4025ce:	3a 20 43 
  4025d1:	48 89 03             	mov    %rax,(%rbx)
  4025d4:	48 b8 6c 69 65 6e 74 	movabs $0x6e7520746e65696c,%rax
  4025db:	20 75 6e 
  4025de:	48 89 43 08          	mov    %rax,0x8(%rbx)
  4025e2:	48 b8 61 62 6c 65 20 	movabs $0x206f7420656c6261,%rax
  4025e9:	74 6f 20 
  4025ec:	48 89 43 10          	mov    %rax,0x10(%rbx)
  4025f0:	48 b8 77 72 69 74 65 	movabs $0x6f74206574697277,%rax
  4025f7:	20 74 6f 
  4025fa:	48 89 43 18          	mov    %rax,0x18(%rbx)
  4025fe:	48 b8 20 74 68 65 20 	movabs $0x7365722065687420,%rax
  402605:	72 65 73 
  402608:	48 89 43 20          	mov    %rax,0x20(%rbx)
  40260c:	48 b8 75 6c 74 20 73 	movabs $0x7672657320746c75,%rax
  402613:	65 72 76 
  402616:	48 89 43 28          	mov    %rax,0x28(%rbx)
  40261a:	66 c7 43 30 65 72    	movw   $0x7265,0x30(%rbx)
  402620:	c6 43 32 00          	movb   $0x0,0x32(%rbx)
  402624:	89 ef                	mov    %ebp,%edi
  402626:	e8 85 e6 ff ff       	callq  400cb0 <close@plt>
  40262b:	b8 ff ff ff ff       	mov    $0xffffffff,%eax
  402630:	e9 fb 02 00 00       	jmpq   402930 <submitr+0x709>
  402635:	89 ee                	mov    %ebp,%esi
  402637:	48 8d bc 24 20 80 00 	lea    0x8020(%rsp),%rdi
  40263e:	00 
  40263f:	e8 6c f9 ff ff       	callq  401fb0 <rio_readinitb>
  402644:	ba 00 20 00 00       	mov    $0x2000,%edx
  402649:	48 8d b4 24 20 60 00 	lea    0x6020(%rsp),%rsi
  402650:	00 
  402651:	48 8d bc 24 20 80 00 	lea    0x8020(%rsp),%rdi
  402658:	00 
  402659:	e8 46 fb ff ff       	callq  4021a4 <rio_readlineb>
  40265e:	48 85 c0             	test   %rax,%rax
  402661:	7f 7d                	jg     4026e0 <submitr+0x4b9>
  402663:	48 b8 45 72 72 6f 72 	movabs $0x43203a726f727245,%rax
  40266a:	3a 20 43 
  40266d:	48 89 03             	mov    %rax,(%rbx)
  402670:	48 b8 6c 69 65 6e 74 	movabs $0x6e7520746e65696c,%rax
  402677:	20 75 6e 
  40267a:	48 89 43 08          	mov    %rax,0x8(%rbx)
  40267e:	48 b8 61 62 6c 65 20 	movabs $0x206f7420656c6261,%rax
  402685:	74 6f 20 
  402688:	48 89 43 10          	mov    %rax,0x10(%rbx)
  40268c:	48 b8 72 65 61 64 20 	movabs $0x7269662064616572,%rax
  402693:	66 69 72 
  402696:	48 89 43 18          	mov    %rax,0x18(%rbx)
  40269a:	48 b8 73 74 20 68 65 	movabs $0x6564616568207473,%rax
  4026a1:	61 64 65 
  4026a4:	48 89 43 20          	mov    %rax,0x20(%rbx)
  4026a8:	48 b8 72 20 66 72 6f 	movabs $0x72206d6f72662072,%rax
  4026af:	6d 20 72 
  4026b2:	48 89 43 28          	mov    %rax,0x28(%rbx)
  4026b6:	48 b8 65 73 75 6c 74 	movabs $0x657320746c757365,%rax
  4026bd:	20 73 65 
  4026c0:	48 89 43 30          	mov    %rax,0x30(%rbx)
  4026c4:	c7 43 38 72 76 65 72 	movl   $0x72657672,0x38(%rbx)
  4026cb:	c6 43 3c 00          	movb   $0x0,0x3c(%rbx)
  4026cf:	89 ef                	mov    %ebp,%edi
  4026d1:	e8 da e5 ff ff       	callq  400cb0 <close@plt>
  4026d6:	b8 ff ff ff ff       	mov    $0xffffffff,%eax
  4026db:	e9 50 02 00 00       	jmpq   402930 <submitr+0x709>
  4026e0:	4c 8d 44 24 10       	lea    0x10(%rsp),%r8
  4026e5:	48 8d 8c 24 1c 20 00 	lea    0x201c(%rsp),%rcx
  4026ec:	00 
  4026ed:	48 8d 94 24 20 20 00 	lea    0x2020(%rsp),%rdx
  4026f4:	00 
  4026f5:	be 3f 35 40 00       	mov    $0x40353f,%esi
  4026fa:	48 8d bc 24 20 60 00 	lea    0x6020(%rsp),%rdi
  402701:	00 
  402702:	b8 00 00 00 00       	mov    $0x0,%eax
  402707:	e8 64 e6 ff ff       	callq  400d70 <__isoc99_sscanf@plt>
  40270c:	e9 98 00 00 00       	jmpq   4027a9 <submitr+0x582>
  402711:	ba 00 20 00 00       	mov    $0x2000,%edx
  402716:	48 8d b4 24 20 60 00 	lea    0x6020(%rsp),%rsi
  40271d:	00 
  40271e:	48 8d bc 24 20 80 00 	lea    0x8020(%rsp),%rdi
  402725:	00 
  402726:	e8 79 fa ff ff       	callq  4021a4 <rio_readlineb>
  40272b:	48 85 c0             	test   %rax,%rax
  40272e:	7f 79                	jg     4027a9 <submitr+0x582>
  402730:	48 b8 45 72 72 6f 72 	movabs $0x43203a726f727245,%rax
  402737:	3a 20 43 
  40273a:	48 89 03             	mov    %rax,(%rbx)
  40273d:	48 b8 6c 69 65 6e 74 	movabs $0x6e7520746e65696c,%rax
  402744:	20 75 6e 
  402747:	48 89 43 08          	mov    %rax,0x8(%rbx)
  40274b:	48 b8 61 62 6c 65 20 	movabs $0x206f7420656c6261,%rax
  402752:	74 6f 20 
  402755:	48 89 43 10          	mov    %rax,0x10(%rbx)
  402759:	48 b8 72 65 61 64 20 	movabs $0x6165682064616572,%rax
  402760:	68 65 61 
  402763:	48 89 43 18          	mov    %rax,0x18(%rbx)
  402767:	48 b8 64 65 72 73 20 	movabs $0x6f72662073726564,%rax
  40276e:	66 72 6f 
  402771:	48 89 43 20          	mov    %rax,0x20(%rbx)
  402775:	48 b8 6d 20 74 68 65 	movabs $0x657220656874206d,%rax
  40277c:	20 72 65 
  40277f:	48 89 43 28          	mov    %rax,0x28(%rbx)
  402783:	48 b8 73 75 6c 74 20 	movabs $0x72657320746c7573,%rax
  40278a:	73 65 72 
  40278d:	48 89 43 30          	mov    %rax,0x30(%rbx)
  402791:	c7 43 38 76 65 72 00 	movl   $0x726576,0x38(%rbx)
  402798:	89 ef                	mov    %ebp,%edi
  40279a:	e8 11 e5 ff ff       	callq  400cb0 <close@plt>
  40279f:	b8 ff ff ff ff       	mov    $0xffffffff,%eax
  4027a4:	e9 87 01 00 00       	jmpq   402930 <submitr+0x709>
  4027a9:	0f b6 84 24 20 60 00 	movzbl 0x6020(%rsp),%eax
  4027b0:	00 
  4027b1:	83 e8 0d             	sub    $0xd,%eax
  4027b4:	75 15                	jne    4027cb <submitr+0x5a4>
  4027b6:	0f b6 84 24 21 60 00 	movzbl 0x6021(%rsp),%eax
  4027bd:	00 
  4027be:	83 e8 0a             	sub    $0xa,%eax
  4027c1:	75 08                	jne    4027cb <submitr+0x5a4>
  4027c3:	0f b6 84 24 22 60 00 	movzbl 0x6022(%rsp),%eax
  4027ca:	00 
  4027cb:	85 c0                	test   %eax,%eax
  4027cd:	0f 85 3e ff ff ff    	jne    402711 <submitr+0x4ea>
  4027d3:	ba 00 20 00 00       	mov    $0x2000,%edx
  4027d8:	48 8d b4 24 20 60 00 	lea    0x6020(%rsp),%rsi
  4027df:	00 
  4027e0:	48 8d bc 24 20 80 00 	lea    0x8020(%rsp),%rdi
  4027e7:	00 
  4027e8:	e8 b7 f9 ff ff       	callq  4021a4 <rio_readlineb>
  4027ed:	48 85 c0             	test   %rax,%rax
  4027f0:	0f 8f 83 00 00 00    	jg     402879 <submitr+0x652>
  4027f6:	48 b8 45 72 72 6f 72 	movabs $0x43203a726f727245,%rax
  4027fd:	3a 20 43 
  402800:	48 89 03             	mov    %rax,(%rbx)
  402803:	48 b8 6c 69 65 6e 74 	movabs $0x6e7520746e65696c,%rax
  40280a:	20 75 6e 
  40280d:	48 89 43 08          	mov    %rax,0x8(%rbx)
  402811:	48 b8 61 62 6c 65 20 	movabs $0x206f7420656c6261,%rax
  402818:	74 6f 20 
  40281b:	48 89 43 10          	mov    %rax,0x10(%rbx)
  40281f:	48 b8 72 65 61 64 20 	movabs $0x6174732064616572,%rax
  402826:	73 74 61 
  402829:	48 89 43 18          	mov    %rax,0x18(%rbx)
  40282d:	48 b8 74 75 73 20 6d 	movabs $0x7373656d20737574,%rax
  402834:	65 73 73 
  402837:	48 89 43 20          	mov    %rax,0x20(%rbx)
  40283b:	48 b8 61 67 65 20 66 	movabs $0x6d6f726620656761,%rax
  402842:	72 6f 6d 
  402845:	48 89 43 28          	mov    %rax,0x28(%rbx)
  402849:	48 b8 20 72 65 73 75 	movabs $0x20746c7573657220,%rax
  402850:	6c 74 20 
  402853:	48 89 43 30          	mov    %rax,0x30(%rbx)
  402857:	c7 43 38 73 65 72 76 	movl   $0x76726573,0x38(%rbx)
  40285e:	66 c7 43 3c 65 72    	movw   $0x7265,0x3c(%rbx)
  402864:	c6 43 3e 00          	movb   $0x0,0x3e(%rbx)
  402868:	89 ef                	mov    %ebp,%edi
  40286a:	e8 41 e4 ff ff       	callq  400cb0 <close@plt>
  40286f:	b8 ff ff ff ff       	mov    $0xffffffff,%eax
  402874:	e9 b7 00 00 00       	jmpq   402930 <submitr+0x709>
  402879:	8b 94 24 1c 20 00 00 	mov    0x201c(%rsp),%edx
  402880:	81 fa c8 00 00 00    	cmp    $0xc8,%edx
  402886:	74 28                	je     4028b0 <submitr+0x689>
  402888:	48 8d 4c 24 10       	lea    0x10(%rsp),%rcx
  40288d:	be 08 35 40 00       	mov    $0x403508,%esi
  402892:	48 89 df             	mov    %rbx,%rdi
  402895:	b8 00 00 00 00       	mov    $0x0,%eax
  40289a:	e8 41 e5 ff ff       	callq  400de0 <sprintf@plt>
  40289f:	89 ef                	mov    %ebp,%edi
  4028a1:	e8 0a e4 ff ff       	callq  400cb0 <close@plt>
  4028a6:	b8 ff ff ff ff       	mov    $0xffffffff,%eax
  4028ab:	e9 80 00 00 00       	jmpq   402930 <submitr+0x709>
  4028b0:	48 8d b4 24 20 60 00 	lea    0x6020(%rsp),%rsi
  4028b7:	00 
  4028b8:	48 89 df             	mov    %rbx,%rdi
  4028bb:	e8 80 e3 ff ff       	callq  400c40 <strcpy@plt>
  4028c0:	89 ef                	mov    %ebp,%edi
  4028c2:	e8 e9 e3 ff ff       	callq  400cb0 <close@plt>
  4028c7:	0f b6 03             	movzbl (%rbx),%eax
  4028ca:	83 e8 4f             	sub    $0x4f,%eax
  4028cd:	75 18                	jne    4028e7 <submitr+0x6c0>
  4028cf:	0f b6 53 01          	movzbl 0x1(%rbx),%edx
  4028d3:	83 ea 4b             	sub    $0x4b,%edx
  4028d6:	75 11                	jne    4028e9 <submitr+0x6c2>
  4028d8:	0f b6 53 02          	movzbl 0x2(%rbx),%edx
  4028dc:	83 ea 0a             	sub    $0xa,%edx
  4028df:	75 08                	jne    4028e9 <submitr+0x6c2>
  4028e1:	0f b6 53 03          	movzbl 0x3(%rbx),%edx
  4028e5:	eb 02                	jmp    4028e9 <submitr+0x6c2>
  4028e7:	89 c2                	mov    %eax,%edx
  4028e9:	85 d2                	test   %edx,%edx
  4028eb:	74 30                	je     40291d <submitr+0x6f6>
  4028ed:	bf 50 35 40 00       	mov    $0x403550,%edi
  4028f2:	b9 05 00 00 00       	mov    $0x5,%ecx
  4028f7:	48 89 de             	mov    %rbx,%rsi
  4028fa:	f3 a6                	repz cmpsb %es:(%rdi),%ds:(%rsi)
  4028fc:	0f 97 c1             	seta   %cl
  4028ff:	0f 92 c2             	setb   %dl
  402902:	38 d1                	cmp    %dl,%cl
  402904:	74 1e                	je     402924 <submitr+0x6fd>
  402906:	85 c0                	test   %eax,%eax
  402908:	75 0d                	jne    402917 <submitr+0x6f0>
  40290a:	0f b6 43 01          	movzbl 0x1(%rbx),%eax
  40290e:	83 e8 4b             	sub    $0x4b,%eax
  402911:	75 04                	jne    402917 <submitr+0x6f0>
  402913:	0f b6 43 02          	movzbl 0x2(%rbx),%eax
  402917:	85 c0                	test   %eax,%eax
  402919:	75 10                	jne    40292b <submitr+0x704>
  40291b:	eb 13                	jmp    402930 <submitr+0x709>
  40291d:	b8 00 00 00 00       	mov    $0x0,%eax
  402922:	eb 0c                	jmp    402930 <submitr+0x709>
  402924:	b8 00 00 00 00       	mov    $0x0,%eax
  402929:	eb 05                	jmp    402930 <submitr+0x709>
  40292b:	b8 ff ff ff ff       	mov    $0xffffffff,%eax
  402930:	48 81 c4 48 a0 00 00 	add    $0xa048,%rsp
  402937:	5b                   	pop    %rbx
  402938:	5d                   	pop    %rbp
  402939:	41 5c                	pop    %r12
  40293b:	41 5d                	pop    %r13
  40293d:	41 5e                	pop    %r14
  40293f:	41 5f                	pop    %r15
  402941:	c3                   	retq   

0000000000402942 <init_timeout>:
  402942:	53                   	push   %rbx
  402943:	89 fb                	mov    %edi,%ebx
  402945:	85 ff                	test   %edi,%edi
  402947:	74 1f                	je     402968 <init_timeout+0x26>
  402949:	85 ff                	test   %edi,%edi
  40294b:	79 05                	jns    402952 <init_timeout+0x10>
  40294d:	bb 00 00 00 00       	mov    $0x0,%ebx
  402952:	be c2 1f 40 00       	mov    $0x401fc2,%esi
  402957:	bf 0e 00 00 00       	mov    $0xe,%edi
  40295c:	e8 7f e3 ff ff       	callq  400ce0 <signal@plt>
  402961:	89 df                	mov    %ebx,%edi
  402963:	e8 38 e3 ff ff       	callq  400ca0 <alarm@plt>
  402968:	5b                   	pop    %rbx
  402969:	c3                   	retq   

000000000040296a <init_driver>:
  40296a:	55                   	push   %rbp
  40296b:	53                   	push   %rbx
  40296c:	48 83 ec 18          	sub    $0x18,%rsp
  402970:	48 89 fd             	mov    %rdi,%rbp
  402973:	be 01 00 00 00       	mov    $0x1,%esi
  402978:	bf 0d 00 00 00       	mov    $0xd,%edi
  40297d:	e8 5e e3 ff ff       	callq  400ce0 <signal@plt>
  402982:	be 01 00 00 00       	mov    $0x1,%esi
  402987:	bf 1d 00 00 00       	mov    $0x1d,%edi
  40298c:	e8 4f e3 ff ff       	callq  400ce0 <signal@plt>
  402991:	be 01 00 00 00       	mov    $0x1,%esi
  402996:	bf 1d 00 00 00       	mov    $0x1d,%edi
  40299b:	e8 40 e3 ff ff       	callq  400ce0 <signal@plt>
  4029a0:	ba 00 00 00 00       	mov    $0x0,%edx
  4029a5:	be 01 00 00 00       	mov    $0x1,%esi
  4029aa:	bf 02 00 00 00       	mov    $0x2,%edi
  4029af:	e8 5c e4 ff ff       	callq  400e10 <socket@plt>
  4029b4:	89 c3                	mov    %eax,%ebx
  4029b6:	85 c0                	test   %eax,%eax
  4029b8:	79 4f                	jns    402a09 <init_driver+0x9f>
  4029ba:	48 b8 45 72 72 6f 72 	movabs $0x43203a726f727245,%rax
  4029c1:	3a 20 43 
  4029c4:	48 89 45 00          	mov    %rax,0x0(%rbp)
  4029c8:	48 b8 6c 69 65 6e 74 	movabs $0x6e7520746e65696c,%rax
  4029cf:	20 75 6e 
  4029d2:	48 89 45 08          	mov    %rax,0x8(%rbp)
  4029d6:	48 b8 61 62 6c 65 20 	movabs $0x206f7420656c6261,%rax
  4029dd:	74 6f 20 
  4029e0:	48 89 45 10          	mov    %rax,0x10(%rbp)
  4029e4:	48 b8 63 72 65 61 74 	movabs $0x7320657461657263,%rax
  4029eb:	65 20 73 
  4029ee:	48 89 45 18          	mov    %rax,0x18(%rbp)
  4029f2:	c7 45 20 6f 63 6b 65 	movl   $0x656b636f,0x20(%rbp)
  4029f9:	66 c7 45 24 74 00    	movw   $0x74,0x24(%rbp)
  4029ff:	b8 ff ff ff ff       	mov    $0xffffffff,%eax
  402a04:	e9 23 01 00 00       	jmpq   402b2c <init_driver+0x1c2>
  402a09:	bf 30 30 40 00       	mov    $0x403030,%edi
  402a0e:	e8 dd e2 ff ff       	callq  400cf0 <gethostbyname@plt>
  402a13:	48 85 c0             	test   %rax,%rax
  402a16:	75 68                	jne    402a80 <init_driver+0x116>
  402a18:	48 b8 45 72 72 6f 72 	movabs $0x44203a726f727245,%rax
  402a1f:	3a 20 44 
  402a22:	48 89 45 00          	mov    %rax,0x0(%rbp)
  402a26:	48 b8 4e 53 20 69 73 	movabs $0x6e7520736920534e,%rax
  402a2d:	20 75 6e 
  402a30:	48 89 45 08          	mov    %rax,0x8(%rbp)
  402a34:	48 b8 61 62 6c 65 20 	movabs $0x206f7420656c6261,%rax
  402a3b:	74 6f 20 
  402a3e:	48 89 45 10          	mov    %rax,0x10(%rbp)
  402a42:	48 b8 72 65 73 6f 6c 	movabs $0x2065766c6f736572,%rax
  402a49:	76 65 20 
  402a4c:	48 89 45 18          	mov    %rax,0x18(%rbp)
  402a50:	48 b8 73 65 72 76 65 	movabs $0x6120726576726573,%rax
  402a57:	72 20 61 
  402a5a:	48 89 45 20          	mov    %rax,0x20(%rbp)
  402a5e:	c7 45 28 64 64 72 65 	movl   $0x65726464,0x28(%rbp)
  402a65:	66 c7 45 2c 73 73    	movw   $0x7373,0x2c(%rbp)
  402a6b:	c6 45 2e 00          	movb   $0x0,0x2e(%rbp)
  402a6f:	89 df                	mov    %ebx,%edi
  402a71:	e8 3a e2 ff ff       	callq  400cb0 <close@plt>
  402a76:	b8 ff ff ff ff       	mov    $0xffffffff,%eax
  402a7b:	e9 ac 00 00 00       	jmpq   402b2c <init_driver+0x1c2>
  402a80:	48 c7 04 24 00 00 00 	movq   $0x0,(%rsp)
  402a87:	00 
  402a88:	48 c7 44 24 08 00 00 	movq   $0x0,0x8(%rsp)
  402a8f:	00 00 
  402a91:	66 c7 04 24 02 00    	movw   $0x2,(%rsp)
  402a97:	48 8b 48 18          	mov    0x18(%rax),%rcx
  402a9b:	48 63 50 14          	movslq 0x14(%rax),%rdx
  402a9f:	48 8d 74 24 04       	lea    0x4(%rsp),%rsi
  402aa4:	48 8b 39             	mov    (%rcx),%rdi
  402aa7:	e8 e4 e2 ff ff       	callq  400d90 <bcopy@plt>
  402aac:	66 c7 44 24 02 47 26 	movw   $0x2647,0x2(%rsp)
  402ab3:	ba 10 00 00 00       	mov    $0x10,%edx
  402ab8:	48 89 e6             	mov    %rsp,%rsi
  402abb:	89 df                	mov    %ebx,%edi
  402abd:	e8 3e e3 ff ff       	callq  400e00 <connect@plt>
  402ac2:	85 c0                	test   %eax,%eax
  402ac4:	79 50                	jns    402b16 <init_driver+0x1ac>
  402ac6:	48 b8 45 72 72 6f 72 	movabs $0x55203a726f727245,%rax
  402acd:	3a 20 55 
  402ad0:	48 89 45 00          	mov    %rax,0x0(%rbp)
  402ad4:	48 b8 6e 61 62 6c 65 	movabs $0x6f7420656c62616e,%rax
  402adb:	20 74 6f 
  402ade:	48 89 45 08          	mov    %rax,0x8(%rbp)
  402ae2:	48 b8 20 63 6f 6e 6e 	movabs $0x7463656e6e6f6320,%rax
  402ae9:	65 63 74 
  402aec:	48 89 45 10          	mov    %rax,0x10(%rbp)
  402af0:	48 b8 20 74 6f 20 73 	movabs $0x76726573206f7420,%rax
  402af7:	65 72 76 
  402afa:	48 89 45 18          	mov    %rax,0x18(%rbp)
  402afe:	66 c7 45 20 65 72    	movw   $0x7265,0x20(%rbp)
  402b04:	c6 45 22 00          	movb   $0x0,0x22(%rbp)
  402b08:	89 df                	mov    %ebx,%edi
  402b0a:	e8 a1 e1 ff ff       	callq  400cb0 <close@plt>
  402b0f:	b8 ff ff ff ff       	mov    $0xffffffff,%eax
  402b14:	eb 16                	jmp    402b2c <init_driver+0x1c2>
  402b16:	89 df                	mov    %ebx,%edi
  402b18:	e8 93 e1 ff ff       	callq  400cb0 <close@plt>
  402b1d:	66 c7 45 00 4f 4b    	movw   $0x4b4f,0x0(%rbp)
  402b23:	c6 45 02 00          	movb   $0x0,0x2(%rbp)
  402b27:	b8 00 00 00 00       	mov    $0x0,%eax
  402b2c:	48 83 c4 18          	add    $0x18,%rsp
  402b30:	5b                   	pop    %rbx
  402b31:	5d                   	pop    %rbp
  402b32:	c3                   	retq   

0000000000402b33 <driver_post>:
  402b33:	53                   	push   %rbx
  402b34:	48 83 ec 10          	sub    $0x10,%rsp
  402b38:	4c 89 cb             	mov    %r9,%rbx
  402b3b:	45 85 c0             	test   %r8d,%r8d
  402b3e:	74 22                	je     402b62 <driver_post+0x2f>
  402b40:	48 89 ce             	mov    %rcx,%rsi
  402b43:	bf 55 35 40 00       	mov    $0x403555,%edi
  402b48:	b8 00 00 00 00       	mov    $0x0,%eax
  402b4d:	e8 2e e1 ff ff       	callq  400c80 <printf@plt>
  402b52:	66 c7 03 4f 4b       	movw   $0x4b4f,(%rbx)
  402b57:	c6 43 02 00          	movb   $0x0,0x2(%rbx)
  402b5b:	b8 00 00 00 00       	mov    $0x0,%eax
  402b60:	eb 39                	jmp    402b9b <driver_post+0x68>
  402b62:	48 85 ff             	test   %rdi,%rdi
  402b65:	74 26                	je     402b8d <driver_post+0x5a>
  402b67:	80 3f 00             	cmpb   $0x0,(%rdi)
  402b6a:	74 21                	je     402b8d <driver_post+0x5a>
  402b6c:	4c 89 0c 24          	mov    %r9,(%rsp)
  402b70:	49 89 c9             	mov    %rcx,%r9
  402b73:	49 89 d0             	mov    %rdx,%r8
  402b76:	48 89 f9             	mov    %rdi,%rcx
  402b79:	48 89 f2             	mov    %rsi,%rdx
  402b7c:	be 26 47 00 00       	mov    $0x4726,%esi
  402b81:	bf 30 30 40 00       	mov    $0x403030,%edi
  402b86:	e8 9c f6 ff ff       	callq  402227 <submitr>
  402b8b:	eb 0e                	jmp    402b9b <driver_post+0x68>
  402b8d:	66 c7 03 4f 4b       	movw   $0x4b4f,(%rbx)
  402b92:	c6 43 02 00          	movb   $0x0,0x2(%rbx)
  402b96:	b8 00 00 00 00       	mov    $0x0,%eax
  402b9b:	48 83 c4 10          	add    $0x10,%rsp
  402b9f:	5b                   	pop    %rbx
  402ba0:	c3                   	retq   

0000000000402ba1 <check>:
  402ba1:	89 f8                	mov    %edi,%eax
  402ba3:	c1 e8 1c             	shr    $0x1c,%eax
  402ba6:	85 c0                	test   %eax,%eax
  402ba8:	74 1d                	je     402bc7 <check+0x26>
  402baa:	b9 00 00 00 00       	mov    $0x0,%ecx
  402baf:	eb 0b                	jmp    402bbc <check+0x1b>
  402bb1:	89 f8                	mov    %edi,%eax
  402bb3:	d3 e8                	shr    %cl,%eax
  402bb5:	3c 0a                	cmp    $0xa,%al
  402bb7:	74 14                	je     402bcd <check+0x2c>
  402bb9:	83 c1 08             	add    $0x8,%ecx
  402bbc:	83 f9 1f             	cmp    $0x1f,%ecx
  402bbf:	7e f0                	jle    402bb1 <check+0x10>
  402bc1:	b8 01 00 00 00       	mov    $0x1,%eax
  402bc6:	c3                   	retq   
  402bc7:	b8 00 00 00 00       	mov    $0x0,%eax
  402bcc:	c3                   	retq   
  402bcd:	b8 00 00 00 00       	mov    $0x0,%eax
  402bd2:	c3                   	retq   

0000000000402bd3 <gencookie>:
  402bd3:	53                   	push   %rbx
  402bd4:	83 c7 01             	add    $0x1,%edi
  402bd7:	e8 44 e0 ff ff       	callq  400c20 <srandom@plt>
  402bdc:	e8 6f e1 ff ff       	callq  400d50 <random@plt>
  402be1:	89 c3                	mov    %eax,%ebx
  402be3:	89 c7                	mov    %eax,%edi
  402be5:	e8 b7 ff ff ff       	callq  402ba1 <check>
  402bea:	85 c0                	test   %eax,%eax
  402bec:	74 ee                	je     402bdc <gencookie+0x9>
  402bee:	89 d8                	mov    %ebx,%eax
  402bf0:	5b                   	pop    %rbx
  402bf1:	c3                   	retq   
  402bf2:	66 2e 0f 1f 84 00 00 	nopw   %cs:0x0(%rax,%rax,1)
  402bf9:	00 00 00 
  402bfc:	0f 1f 40 00          	nopl   0x0(%rax)

0000000000402c00 <__libc_csu_init>:
  402c00:	41 57                	push   %r15
  402c02:	41 89 ff             	mov    %edi,%r15d
  402c05:	41 56                	push   %r14
  402c07:	49 89 f6             	mov    %rsi,%r14
  402c0a:	41 55                	push   %r13
  402c0c:	49 89 d5             	mov    %rdx,%r13
  402c0f:	41 54                	push   %r12
  402c11:	4c 8d 25 f8 21 20 00 	lea    0x2021f8(%rip),%r12        # 604e10 <__frame_dummy_init_array_entry>
  402c18:	55                   	push   %rbp
  402c19:	48 8d 2d f8 21 20 00 	lea    0x2021f8(%rip),%rbp        # 604e18 <__init_array_end>
  402c20:	53                   	push   %rbx
  402c21:	4c 29 e5             	sub    %r12,%rbp
  402c24:	31 db                	xor    %ebx,%ebx
  402c26:	48 c1 fd 03          	sar    $0x3,%rbp
  402c2a:	48 83 ec 08          	sub    $0x8,%rsp
  402c2e:	e8 95 df ff ff       	callq  400bc8 <_init>
  402c33:	48 85 ed             	test   %rbp,%rbp
  402c36:	74 1e                	je     402c56 <__libc_csu_init+0x56>
  402c38:	0f 1f 84 00 00 00 00 	nopl   0x0(%rax,%rax,1)
  402c3f:	00 
  402c40:	4c 89 ea             	mov    %r13,%rdx
  402c43:	4c 89 f6             	mov    %r14,%rsi
  402c46:	44 89 ff             	mov    %r15d,%edi
  402c49:	41 ff 14 dc          	callq  *(%r12,%rbx,8)
  402c4d:	48 83 c3 01          	add    $0x1,%rbx
  402c51:	48 39 eb             	cmp    %rbp,%rbx
  402c54:	75 ea                	jne    402c40 <__libc_csu_init+0x40>
  402c56:	48 83 c4 08          	add    $0x8,%rsp
  402c5a:	5b                   	pop    %rbx
  402c5b:	5d                   	pop    %rbp
  402c5c:	41 5c                	pop    %r12
  402c5e:	41 5d                	pop    %r13
  402c60:	41 5e                	pop    %r14
  402c62:	41 5f                	pop    %r15
  402c64:	c3                   	retq   
  402c65:	90                   	nop
  402c66:	66 2e 0f 1f 84 00 00 	nopw   %cs:0x0(%rax,%rax,1)
  402c6d:	00 00 00 

0000000000402c70 <__libc_csu_fini>:
  402c70:	f3 c3                	repz retq 

Disassembly of section .fini:

0000000000402c74 <_fini>:
  402c74:	48 83 ec 08          	sub    $0x8,%rsp
  402c78:	48 83 c4 08          	add    $0x8,%rsp
  402c7c:	c3                   	retq   
